
build-release/dma.elf:     format de fichier elf32-or1k


Déassemblage de la section .vectors :

00000000 <_error>:
   0:	de ad 13 00 	l.sh -21760(r13),r2
   4:	15 00 00 00 	l.nop 0x0
   8:	00 00 00 22 	l.j 90 <_exception_handler>
   c:	15 00 00 00 	l.nop 0x0
  10:	00 00 00 20 	l.j 90 <_exception_handler>
  14:	15 00 00 00 	l.nop 0x0
  18:	00 00 00 1e 	l.j 90 <_exception_handler>
  1c:	15 00 00 00 	l.nop 0x0
  20:	00 00 00 1c 	l.j 90 <_exception_handler>
  24:	15 00 00 00 	l.nop 0x0
  28:	00 00 00 1a 	l.j 90 <_exception_handler>
  2c:	15 00 00 00 	l.nop 0x0
  30:	00 00 00 18 	l.j 90 <_exception_handler>
  34:	15 00 00 00 	l.nop 0x0
  38:	00 00 00 16 	l.j 90 <_exception_handler>
  3c:	15 00 00 00 	l.nop 0x0
  40:	00 00 00 14 	l.j 90 <_exception_handler>
  44:	15 00 00 00 	l.nop 0x0
  48:	00 00 00 12 	l.j 90 <_exception_handler>
  4c:	15 00 00 00 	l.nop 0x0
  50:	00 00 00 10 	l.j 90 <_exception_handler>
  54:	15 00 00 00 	l.nop 0x0
  58:	00 00 00 0e 	l.j 90 <_exception_handler>
  5c:	15 00 00 00 	l.nop 0x0
  60:	00 00 00 0c 	l.j 90 <_exception_handler>
  64:	15 00 00 00 	l.nop 0x0
  68:	00 00 00 0a 	l.j 90 <_exception_handler>
  6c:	15 00 00 00 	l.nop 0x0

00000070 <_start>:
  70:	b4 20 50 05 	l.mfspr r1,r0,0x5005
  74:	15 00 00 00 	l.nop 0x0
  78:	15 00 00 00 	l.nop 0x0
  7c:	e0 60 00 05 	l.xor r3,r0,r0
  80:	04 00 00 5d 	l.jal 1f4 <main>
  84:	e0 80 00 05 	l.xor r4,r0,r0

00000088 <_loop_end>:
  88:	00 00 00 00 	l.j 88 <_loop_end>
  8c:	15 00 00 00 	l.nop 0x0

00000090 <_exception_handler>:
  90:	9c 21 ff 84 	l.addi r1,r1,-124
  94:	d4 01 10 00 	l.sw 0(r1),r2
  98:	d4 01 18 04 	l.sw 4(r1),r3
  9c:	9c 60 02 00 	l.addi r3,r0,512
  a0:	c3 e0 18 00 	l.mtspr r0,r3,0xf800
  a4:	d4 01 20 08 	l.sw 8(r1),r4
  a8:	d4 01 28 0c 	l.sw 12(r1),r5
  ac:	d4 01 30 10 	l.sw 16(r1),r6
  b0:	d4 01 38 14 	l.sw 20(r1),r7
  b4:	d4 01 40 18 	l.sw 24(r1),r8
  b8:	d4 01 48 1c 	l.sw 28(r1),r9
  bc:	d4 01 50 20 	l.sw 32(r1),r10
  c0:	d4 01 58 24 	l.sw 36(r1),r11
  c4:	d4 01 60 28 	l.sw 40(r1),r12
  c8:	d4 01 68 2c 	l.sw 44(r1),r13
  cc:	d4 01 70 30 	l.sw 48(r1),r14
  d0:	d4 01 78 34 	l.sw 52(r1),r15
  d4:	d4 01 80 38 	l.sw 56(r1),r16
  d8:	d4 01 88 3c 	l.sw 60(r1),r17
  dc:	d4 01 90 40 	l.sw 64(r1),r18
  e0:	d4 01 98 44 	l.sw 68(r1),r19
  e4:	d4 01 a0 48 	l.sw 72(r1),r20
  e8:	d4 01 a8 4c 	l.sw 76(r1),r21
  ec:	d4 01 b0 50 	l.sw 80(r1),r22
  f0:	d4 01 b8 54 	l.sw 84(r1),r23
  f4:	d4 01 c0 58 	l.sw 88(r1),r24
  f8:	d4 01 c8 5c 	l.sw 92(r1),r25
  fc:	d4 01 d0 60 	l.sw 96(r1),r26
 100:	d4 01 d8 64 	l.sw 100(r1),r27
 104:	d4 01 e0 68 	l.sw 104(r1),r28
 108:	d4 01 e8 6c 	l.sw 108(r1),r29
 10c:	d4 01 f0 70 	l.sw 112(r1),r30
 110:	d4 01 f8 74 	l.sw 116(r1),r31
 114:	b7 e0 00 12 	l.mfspr r31,r0,0x12
 118:	bb ff 00 02 	l.slli r31,r31,0x2
 11c:	1b c0 00 00 	l.movhi r30,0x0
 120:	ab de 01 bc 	l.ori r30,r30,0x1bc
 124:	e3 de f8 00 	l.add r30,r30,r31
 128:	87 fe 00 00 	l.lwz r31,0(r30)
 12c:	48 00 f8 00 	l.jalr r31
 130:	15 00 00 00 	l.nop 0x0
 134:	84 41 00 00 	l.lwz r2,0(r1)
 138:	84 61 00 04 	l.lwz r3,4(r1)
 13c:	84 81 00 08 	l.lwz r4,8(r1)
 140:	84 a1 00 0c 	l.lwz r5,12(r1)
 144:	84 c1 00 10 	l.lwz r6,16(r1)
 148:	84 e1 00 14 	l.lwz r7,20(r1)
 14c:	85 01 00 18 	l.lwz r8,24(r1)
 150:	85 21 00 1c 	l.lwz r9,28(r1)
 154:	85 41 00 20 	l.lwz r10,32(r1)
 158:	85 61 00 24 	l.lwz r11,36(r1)
 15c:	85 81 00 28 	l.lwz r12,40(r1)
 160:	85 a1 00 2c 	l.lwz r13,44(r1)
 164:	85 c1 00 30 	l.lwz r14,48(r1)
 168:	85 e1 00 34 	l.lwz r15,52(r1)
 16c:	86 01 00 38 	l.lwz r16,56(r1)
 170:	86 21 00 3c 	l.lwz r17,60(r1)
 174:	86 41 00 40 	l.lwz r18,64(r1)
 178:	86 61 00 44 	l.lwz r19,68(r1)
 17c:	86 81 00 48 	l.lwz r20,72(r1)
 180:	86 a1 00 4c 	l.lwz r21,76(r1)
 184:	86 c1 00 50 	l.lwz r22,80(r1)
 188:	86 e1 00 54 	l.lwz r23,84(r1)
 18c:	87 01 00 58 	l.lwz r24,88(r1)
 190:	87 21 00 5c 	l.lwz r25,92(r1)
 194:	87 41 00 60 	l.lwz r26,96(r1)
 198:	87 61 00 64 	l.lwz r27,100(r1)
 19c:	87 81 00 68 	l.lwz r28,104(r1)
 1a0:	87 a1 00 6c 	l.lwz r29,108(r1)
 1a4:	87 c1 00 70 	l.lwz r30,112(r1)
 1a8:	87 e1 00 74 	l.lwz r31,116(r1)
 1ac:	9c 21 00 7c 	l.addi r1,r1,124
 1b0:	c3 e0 00 00 	l.mtspr r0,r0,0xf800
 1b4:	24 00 00 00 	l.rfe
 1b8:	15 00 00 00 	l.nop 0x0

000001bc <_vectors>:
 1bc:	00 00 00 70 	l.j 37c <main+0x188>
 1c0:	00 00 05 08 	l.j 15e0 <_vsnprintf+0x49c>
 1c4:	00 00 05 14 	l.j 1614 <_vsnprintf+0x4d0>
 1c8:	00 00 05 20 	l.j 1648 <_vsnprintf+0x504>
 1cc:	00 00 05 2c 	l.j 167c <_vsnprintf+0x538>
 1d0:	00 00 05 38 	l.j 16b0 <_vsnprintf+0x56c>
 1d4:	00 00 05 48 	l.j 16f4 <_vsnprintf+0x5b0>
 1d8:	00 00 05 54 	l.j 1728 <_vsnprintf+0x5e4>
 1dc:	00 00 05 60 	l.j 175c <_vsnprintf+0x618>
 1e0:	00 00 05 6c 	l.j 1790 <_vsnprintf+0x64c>
 1e4:	00 00 05 78 	l.j 17c4 <_vsnprintf+0x680>
 1e8:	00 00 05 84 	l.j 17f8 <_vsnprintf+0x6b4>
 1ec:	00 00 06 38 	l.j 1acc <sprintf_+0x24>
 1f0:	00 00 05 90 	l.j 1830 <_vsnprintf+0x6ec>

Déassemblage de la section .text :

000001f4 <main>:
     1f4:	9c 21 ff e4 	l.addi r1,r1,-28
     1f8:	d4 01 80 04 	l.sw 4(r1),r16
     1fc:	d4 01 90 08 	l.sw 8(r1),r18
     200:	d4 01 a0 0c 	l.sw 12(r1),r20
     204:	d4 01 b0 10 	l.sw 16(r1),r22
     208:	d4 01 c0 14 	l.sw 20(r1),r24
     20c:	d4 01 48 18 	l.sw 24(r1),r9
     210:	04 00 01 3b 	l.jal 6fc <perf_init>
     214:	15 00 00 00 	l.nop 0x0
     218:	aa 20 00 01 	l.ori r17,r0,0x1
     21c:	aa 60 08 10 	l.ori r19,r0,0x810
     220:	c3 f1 98 00 	l.mtspr r17,r19,0xf800
     224:	aa 20 00 02 	l.ori r17,r0,0x2
     228:	aa 60 10 00 	l.ori r19,r0,0x1000
     22c:	c3 f1 98 00 	l.mtspr r17,r19,0xf800
     230:	aa 60 00 03 	l.ori r19,r0,0x3
     234:	c3 f3 88 00 	l.mtspr r19,r17,0xf800
     238:	aa 20 00 04 	l.ori r17,r0,0x4
     23c:	1a 60 00 40 	l.movhi r19,0x40
     240:	c3 f1 98 00 	l.mtspr r17,r19,0xf800
     244:	04 00 07 41 	l.jal 1f48 <vga_clear>
     248:	15 00 00 00 	l.nop 0x0
     24c:	18 60 00 00 	l.movhi r3,0x0
     250:	04 00 06 0a 	l.jal 1a78 <printf_>
     254:	9c 63 2a dc 	l.addi r3,r3,10972
     258:	1a 20 c0 02 	l.movhi r17,0xc002
     25c:	aa 31 00 02 	l.ori r17,r17,0x2
     260:	c0 00 88 06 	l.mtspr r0,r17,0x6
     264:	1a 00 c0 00 	l.movhi r16,0xc000
     268:	aa 30 01 00 	l.ori r17,r16,0x100
     26c:	c0 00 88 05 	l.mtspr r0,r17,0x5
     270:	b6 20 00 11 	l.mfspr r17,r0,0x11
     274:	aa 31 00 10 	l.ori r17,r17,0x10
     278:	c0 00 88 11 	l.mtspr r0,r17,0x11
     27c:	b6 20 00 11 	l.mfspr r17,r0,0x11
     280:	aa 31 00 08 	l.ori r17,r17,0x8
     284:	c0 00 88 11 	l.mtspr r0,r17,0x11
     288:	aa 60 02 00 	l.ori r19,r0,0x200
     28c:	72 f3 00 01 	l.nios_rrr r23,r19,r0,0x1
     290:	1a 20 50 00 	l.movhi r17,0x5000
     294:	aa b1 00 20 	l.ori r21,r17,0x20
     298:	d4 15 b8 00 	l.sw 0(r21),r23
     29c:	72 73 00 01 	l.nios_rrr r19,r19,r0,0x1
     2a0:	1b 00 00 00 	l.movhi r24,0x0
     2a4:	aa b1 00 24 	l.ori r21,r17,0x24
     2a8:	d4 15 98 00 	l.sw 0(r21),r19
     2ac:	9e 58 4e 28 	l.addi r18,r24,20008
     2b0:	72 72 00 01 	l.nios_rrr r19,r18,r0,0x1
     2b4:	aa 31 00 2c 	l.ori r17,r17,0x2c
     2b8:	d4 11 98 00 	l.sw 0(r17),r19
     2bc:	18 a0 00 08 	l.movhi r5,0x8
     2c0:	18 80 00 00 	l.movhi r4,0x0
     2c4:	04 00 06 c2 	l.jal 1dcc <memset>
     2c8:	e0 72 90 04 	l.or r3,r18,r18
     2cc:	e2 30 80 04 	l.or r17,r16,r16
     2d0:	aa a0 00 af 	l.ori r21,r0,0xaf
     2d4:	e2 90 80 04 	l.or r20,r16,r16
     2d8:	aa 70 04 00 	l.ori r19,r16,0x400
     2dc:	d4 11 a8 00 	l.sw 0(r17),r21
     2e0:	9e 31 00 04 	l.addi r17,r17,4
     2e4:	e4 31 98 00 	l.sfne r17,r19
     2e8:	13 ff ff fd 	l.bf 2dc <main+0xe8>
     2ec:	15 00 00 00 	l.nop 0x0
     2f0:	aa 34 02 00 	l.ori r17,r20,0x200
     2f4:	18 60 00 00 	l.movhi r3,0x0
     2f8:	86 31 00 00 	l.lwz r17,0(r17)
     2fc:	9c 63 2a f8 	l.addi r3,r3,11000
     300:	04 00 05 de 	l.jal 1a78 <printf_>
     304:	d4 01 88 00 	l.sw 0(r1),r17
     308:	72 72 00 01 	l.nios_rrr r19,r18,r0,0x1
     30c:	1a 00 50 00 	l.movhi r16,0x5000
     310:	aa 30 00 40 	l.ori r17,r16,0x40
     314:	d4 11 98 00 	l.sw 0(r17),r19
     318:	72 94 00 01 	l.nios_rrr r20,r20,r0,0x1
     31c:	1a c0 00 00 	l.movhi r22,0x0
     320:	aa 30 00 44 	l.ori r17,r16,0x44
     324:	d4 11 a0 00 	l.sw 0(r17),r20
     328:	9e d6 2b 0f 	l.addi r22,r22,11023
     32c:	aa 90 00 4c 	l.ori r20,r16,0x4c
     330:	86 34 00 00 	l.lwz r17,0(r20)
     334:	e0 76 b0 04 	l.or r3,r22,r22
     338:	04 00 05 d0 	l.jal 1a78 <printf_>
     33c:	d4 01 88 00 	l.sw 0(r1),r17
     340:	aa 20 01 00 	l.ori r17,r0,0x100
     344:	72 71 00 01 	l.nios_rrr r19,r17,r0,0x1
     348:	aa 10 00 48 	l.ori r16,r16,0x48
     34c:	d4 10 98 00 	l.sw 0(r16),r19
     350:	aa 60 00 ff 	l.ori r19,r0,0xff
     354:	72 73 00 01 	l.nios_rrr r19,r19,r0,0x1
     358:	d4 14 98 00 	l.sw 0(r20),r19
     35c:	72 31 00 01 	l.nios_rrr r17,r17,r0,0x1
     360:	d4 14 88 00 	l.sw 0(r20),r17
     364:	86 34 00 00 	l.lwz r17,0(r20)
     368:	e0 76 b0 04 	l.or r3,r22,r22
     36c:	04 00 05 c3 	l.jal 1a78 <printf_>
     370:	d4 01 88 00 	l.sw 0(r1),r17
     374:	aa 60 00 01 	l.ori r19,r0,0x1
     378:	86 34 00 00 	l.lwz r17,0(r20)
     37c:	72 31 00 01 	l.nios_rrr r17,r17,r0,0x1
     380:	e4 11 98 00 	l.sfeq r17,r19
     384:	13 ff ff fd 	l.bf 378 <main+0x184>
     388:	96 38 4e 28 	l.lhz r17,20008(r24)
     38c:	18 60 00 00 	l.movhi r3,0x0
     390:	d4 01 88 00 	l.sw 0(r1),r17
     394:	04 00 05 b9 	l.jal 1a78 <printf_>
     398:	9c 63 2b 26 	l.addi r3,r3,11046
     39c:	aa 20 02 00 	l.ori r17,r0,0x200
     3a0:	c3 e0 88 00 	l.mtspr r0,r17,0xf800
     3a4:	1a 20 00 02 	l.movhi r17,0x2
     3a8:	1b e0 00 18 	l.movhi r31,0x18
     3ac:	aa 31 00 40 	l.ori r17,r17,0x40
     3b0:	70 11 fb 21 	l.nios_crc r0,r17,r31,0x21
     3b4:	1a 20 50 00 	l.movhi r17,0x5000
     3b8:	1a e0 c0 00 	l.movhi r23,0xc000
     3bc:	ab b1 00 4c 	l.ori r29,r17,0x4c
     3c0:	a9 f1 00 40 	l.ori r15,r17,0x40
     3c4:	a9 91 00 44 	l.ori r12,r17,0x44
     3c8:	e3 72 90 04 	l.or r27,r18,r18
     3cc:	1a a0 e8 00 	l.movhi r21,0xe800
     3d0:	19 a0 00 30 	l.movhi r13,0x30
     3d4:	aa f7 04 00 	l.ori r23,r23,0x400
     3d8:	aa 31 00 48 	l.ori r17,r17,0x48
     3dc:	a9 60 01 00 	l.ori r11,r0,0x100
     3e0:	a9 00 02 ff 	l.ori r8,r0,0x2ff
     3e4:	a8 e0 00 01 	l.ori r7,r0,0x1
     3e8:	18 c0 18 00 	l.movhi r6,0x1800
     3ec:	1b 20 e0 00 	l.movhi r25,0xe000
     3f0:	1a 60 c0 00 	l.movhi r19,0xc000
     3f4:	70 99 a8 20 	l.nios_rrr r4,r25,r21,0x20
     3f8:	e0 b3 98 04 	l.or r5,r19,r19
     3fc:	9e 73 00 04 	l.addi r19,r19,4
     400:	d4 05 20 00 	l.sw 0(r5),r4
     404:	e4 33 b8 00 	l.sfne r19,r23
     408:	13 ff ff fb 	l.bf 3f4 <main+0x200>
     40c:	e3 39 68 00 	l.add r25,r25,r13
     410:	1b 20 00 00 	l.movhi r25,0x0
     414:	86 7d 00 00 	l.lwz r19,0(r29)
     418:	a6 73 00 01 	l.andi r19,r19,0x1
     41c:	e4 33 c8 00 	l.sfne r19,r25
     420:	13 ff ff fd 	l.bf 414 <main+0x220>
     424:	15 00 00 00 	l.nop 0x0
     428:	d4 0f d8 00 	l.sw 0(r15),r27
     42c:	d4 0c b8 00 	l.sw 0(r12),r23
     430:	d4 11 58 00 	l.sw 0(r17),r11
     434:	d4 1d 40 00 	l.sw 0(r29),r8
     438:	86 7d 00 00 	l.lwz r19,0(r29)
     43c:	e4 b3 38 00 	l.sfleu r19,r7
     440:	13 ff ff fe 	l.bf 438 <main+0x244>
     444:	15 00 00 00 	l.nop 0x0
     448:	e2 b5 f8 00 	l.add r21,r21,r31
     44c:	e4 15 30 00 	l.sfeq r21,r6
     450:	0f ff ff e7 	l.bnf 3ec <main+0x1f8>
     454:	9f 7b 01 00 	l.addi r27,r27,256
     458:	1a 20 20 00 	l.movhi r17,0x2000
     45c:	c0 00 88 05 	l.mtspr r0,r17,0x5
     460:	86 52 00 00 	l.lwz r18,0(r18)
     464:	1a 20 00 00 	l.movhi r17,0x0
     468:	c3 e0 88 00 	l.mtspr r0,r17,0xf800
     46c:	18 60 00 00 	l.movhi r3,0x0
     470:	04 00 05 82 	l.jal 1a78 <printf_>
     474:	9c 63 2b 45 	l.addi r3,r3,11077
     478:	18 80 00 00 	l.movhi r4,0x0
     47c:	9c 84 2b 4b 	l.addi r4,r4,11083
     480:	04 00 01 1b 	l.jal 8ec <perf_print_cycles>
     484:	a8 60 00 02 	l.ori r3,r0,0x2
     488:	18 80 00 00 	l.movhi r4,0x0
     48c:	9c 84 2b 55 	l.addi r4,r4,11093
     490:	04 00 01 17 	l.jal 8ec <perf_print_cycles>
     494:	a8 60 00 03 	l.ori r3,r0,0x3
     498:	18 80 00 00 	l.movhi r4,0x0
     49c:	9c 84 2b 5f 	l.addi r4,r4,11103
     4a0:	04 00 01 13 	l.jal 8ec <perf_print_cycles>
     4a4:	18 60 00 00 	l.movhi r3,0x0
     4a8:	18 80 00 00 	l.movhi r4,0x0
     4ac:	9c 84 2b 6a 	l.addi r4,r4,11114
     4b0:	04 00 01 0f 	l.jal 8ec <perf_print_cycles>
     4b4:	a8 60 00 01 	l.ori r3,r0,0x1
     4b8:	18 80 00 00 	l.movhi r4,0x0
     4bc:	9c 84 2b 78 	l.addi r4,r4,11128
     4c0:	04 00 01 0b 	l.jal 8ec <perf_print_cycles>
     4c4:	a8 60 00 08 	l.ori r3,r0,0x8
     4c8:	19 60 00 00 	l.movhi r11,0x0
     4cc:	86 01 00 04 	l.lwz r16,4(r1)
     4d0:	86 41 00 08 	l.lwz r18,8(r1)
     4d4:	86 81 00 0c 	l.lwz r20,12(r1)
     4d8:	86 c1 00 10 	l.lwz r22,16(r1)
     4dc:	87 01 00 14 	l.lwz r24,20(r1)
     4e0:	85 21 00 18 	l.lwz r9,24(r1)
     4e4:	44 00 48 00 	l.jr r9
     4e8:	9c 21 00 1c 	l.addi r1,r1,28

000004ec <assert_die>:
     4ec:	18 60 00 00 	l.movhi r3,0x0
     4f0:	9c 21 ff fc 	l.addi r1,r1,-4
     4f4:	d4 01 48 00 	l.sw 0(r1),r9
     4f8:	04 00 01 50 	l.jal a38 <puts>
     4fc:	9c 63 2b 80 	l.addi r3,r3,11136
     500:	00 00 00 00 	l.j 500 <assert_die+0x14>
     504:	15 00 00 00 	l.nop 0x0

00000508 <bus_error_handler>:
     508:	18 60 00 00 	l.movhi r3,0x0
     50c:	00 00 01 4b 	l.j a38 <puts>
     510:	9c 63 2b 86 	l.addi r3,r3,11142

00000514 <data_page_fault_handler>:
     514:	18 60 00 00 	l.movhi r3,0x0
     518:	00 00 01 48 	l.j a38 <puts>
     51c:	9c 63 2b 91 	l.addi r3,r3,11153

00000520 <instruction_page_fault_handler>:
     520:	18 60 00 00 	l.movhi r3,0x0
     524:	00 00 01 45 	l.j a38 <puts>
     528:	9c 63 2b a1 	l.addi r3,r3,11169

0000052c <tick_timer_handler>:
     52c:	18 60 00 00 	l.movhi r3,0x0
     530:	00 00 01 42 	l.j a38 <puts>
     534:	9c 63 2b ae 	l.addi r3,r3,11182

00000538 <allignment_exception_handler>:
     538:	21 00 00 0f 	l.trap 0xf
     53c:	18 60 00 00 	l.movhi r3,0x0
     540:	00 00 01 3e 	l.j a38 <puts>
     544:	9c 63 2b b3 	l.addi r3,r3,11187

00000548 <illegal_instruction_handler>:
     548:	18 60 00 00 	l.movhi r3,0x0
     54c:	00 00 01 3b 	l.j a38 <puts>
     550:	9c 63 2b ba 	l.addi r3,r3,11194

00000554 <external_interrupt_handler>:
     554:	18 60 00 00 	l.movhi r3,0x0
     558:	00 00 01 38 	l.j a38 <puts>
     55c:	9c 63 2b c0 	l.addi r3,r3,11200

00000560 <dtlb_miss_handler>:
     560:	18 60 00 00 	l.movhi r3,0x0
     564:	00 00 01 35 	l.j a38 <puts>
     568:	9c 63 2b c5 	l.addi r3,r3,11205

0000056c <itlb_miss_handler>:
     56c:	18 60 00 00 	l.movhi r3,0x0
     570:	00 00 01 32 	l.j a38 <puts>
     574:	9c 63 2b ca 	l.addi r3,r3,11210

00000578 <range_exception_handler>:
     578:	18 60 00 00 	l.movhi r3,0x0
     57c:	00 00 01 2f 	l.j a38 <puts>
     580:	9c 63 2b cf 	l.addi r3,r3,11215

00000584 <system_call_handler>:
     584:	18 60 00 00 	l.movhi r3,0x0
     588:	00 00 01 2c 	l.j a38 <puts>
     58c:	9c 63 2b d6 	l.addi r3,r3,11222

00000590 <trap_handler>:
     590:	18 60 00 00 	l.movhi r3,0x0
     594:	9c 21 ff ec 	l.addi r1,r1,-20
     598:	d4 01 80 04 	l.sw 4(r1),r16
     59c:	d4 01 90 08 	l.sw 8(r1),r18
     5a0:	d4 01 a0 0c 	l.sw 12(r1),r20
     5a4:	d4 01 48 10 	l.sw 16(r1),r9
     5a8:	04 00 01 24 	l.jal a38 <puts>
     5ac:	9c 63 2b de 	l.addi r3,r3,11230
     5b0:	b6 20 00 20 	l.mfspr r17,r0,0x20
     5b4:	18 60 00 00 	l.movhi r3,0x0
     5b8:	d4 01 88 00 	l.sw 0(r1),r17
     5bc:	04 00 05 2f 	l.jal 1a78 <printf_>
     5c0:	9c 63 2b e4 	l.addi r3,r3,11236
     5c4:	b6 20 00 30 	l.mfspr r17,r0,0x30
     5c8:	18 60 00 00 	l.movhi r3,0x0
     5cc:	d4 01 88 00 	l.sw 0(r1),r17
     5d0:	04 00 05 2a 	l.jal 1a78 <printf_>
     5d4:	9c 63 2b f3 	l.addi r3,r3,11251
     5d8:	b6 20 00 40 	l.mfspr r17,r0,0x40
     5dc:	18 60 00 00 	l.movhi r3,0x0
     5e0:	d4 01 88 00 	l.sw 0(r1),r17
     5e4:	04 00 05 25 	l.jal 1a78 <printf_>
     5e8:	9c 63 2c 02 	l.addi r3,r3,11266
     5ec:	b6 20 00 50 	l.mfspr r17,r0,0x50
     5f0:	18 60 00 00 	l.movhi r3,0x0
     5f4:	d4 01 88 00 	l.sw 0(r1),r17
     5f8:	9c 63 2c 11 	l.addi r3,r3,11281
     5fc:	04 00 05 1f 	l.jal 1a78 <printf_>
     600:	1a 40 00 00 	l.movhi r18,0x0
     604:	1a 00 00 00 	l.movhi r16,0x0
     608:	9e 52 2c 09 	l.addi r18,r18,11273
     60c:	aa 80 01 00 	l.ori r20,r0,0x100
     610:	b6 30 31 00 	l.mfspr r17,r16,0x3100
     614:	d4 01 88 00 	l.sw 0(r1),r17
     618:	04 00 05 18 	l.jal 1a78 <printf_>
     61c:	e0 72 90 04 	l.or r3,r18,r18
     620:	9e 10 00 01 	l.addi r16,r16,1
     624:	e4 30 a0 00 	l.sfne r16,r20
     628:	13 ff ff fa 	l.bf 610 <trap_handler+0x80>
     62c:	15 00 00 00 	l.nop 0x0
     630:	00 00 00 00 	l.j 630 <trap_handler+0xa0>
     634:	15 00 00 00 	l.nop 0x0

00000638 <break_point_handler>:
     638:	18 60 00 00 	l.movhi r3,0x0
     63c:	00 00 00 ff 	l.j a38 <puts>
     640:	9c 63 2c 27 	l.addi r3,r3,11303

00000644 <perf_cpu_freq>:
     644:	1a 60 00 ff 	l.movhi r19,0xff
     648:	aa 73 ff ff 	l.ori r19,r19,0xffff
     64c:	b6 20 00 09 	l.mfspr r17,r0,0x9
     650:	1a e0 00 00 	l.movhi r23,0x0
     654:	e2 b1 98 03 	l.and r21,r17,r19
     658:	e4 15 b8 00 	l.sfeq r21,r23
     65c:	13 ff ff fc 	l.bf 64c <perf_cpu_freq+0x8>
     660:	aa e0 00 02 	l.ori r23,r0,0x2
     664:	aa 60 00 1c 	l.ori r19,r0,0x1c
     668:	e2 b1 98 48 	l.srl r21,r17,r19
     66c:	e2 75 b8 08 	l.sll r19,r21,r23
     670:	e2 73 a8 00 	l.add r19,r19,r21
     674:	aa a0 00 18 	l.ori r21,r0,0x18
     678:	e2 b1 a8 48 	l.srl r21,r17,r21
     67c:	e2 73 98 00 	l.add r19,r19,r19
     680:	a6 b5 00 0f 	l.andi r21,r21,0xf
     684:	e2 b5 98 00 	l.add r21,r21,r19
     688:	e2 75 b8 08 	l.sll r19,r21,r23
     68c:	e2 73 a8 00 	l.add r19,r19,r21
     690:	aa a0 00 14 	l.ori r21,r0,0x14
     694:	e2 b1 a8 48 	l.srl r21,r17,r21
     698:	e2 73 98 00 	l.add r19,r19,r19
     69c:	a6 b5 00 0f 	l.andi r21,r21,0xf
     6a0:	e2 b5 98 00 	l.add r21,r21,r19
     6a4:	e2 75 b8 08 	l.sll r19,r21,r23
     6a8:	e2 73 a8 00 	l.add r19,r19,r21
     6ac:	aa a0 00 10 	l.ori r21,r0,0x10
     6b0:	e2 b1 a8 48 	l.srl r21,r17,r21
     6b4:	e2 73 98 00 	l.add r19,r19,r19
     6b8:	a6 b5 00 0f 	l.andi r21,r21,0xf
     6bc:	e2 b5 98 00 	l.add r21,r21,r19
     6c0:	e2 75 b8 08 	l.sll r19,r21,r23
     6c4:	e2 73 a8 00 	l.add r19,r19,r21
     6c8:	e2 b3 98 00 	l.add r21,r19,r19
     6cc:	aa 60 00 0c 	l.ori r19,r0,0xc
     6d0:	e2 71 98 48 	l.srl r19,r17,r19
     6d4:	a6 73 00 0f 	l.andi r19,r19,0xf
     6d8:	e2 73 a8 00 	l.add r19,r19,r21
     6dc:	e1 73 b8 08 	l.sll r11,r19,r23
     6e0:	e1 6b 98 00 	l.add r11,r11,r19
     6e4:	aa 60 00 08 	l.ori r19,r0,0x8
     6e8:	e2 31 98 48 	l.srl r17,r17,r19
     6ec:	a6 31 00 0f 	l.andi r17,r17,0xf
     6f0:	e1 6b 58 00 	l.add r11,r11,r11
     6f4:	44 00 48 00 	l.jr r9
     6f8:	e1 71 58 00 	l.add r11,r17,r11

000006fc <perf_init>:
     6fc:	9c 21 ff fc 	l.addi r1,r1,-4
     700:	d4 01 48 00 	l.sw 0(r1),r9
     704:	07 ff ff d0 	l.jal 644 <perf_cpu_freq>
     708:	15 00 00 00 	l.nop 0x0
     70c:	1a 20 00 08 	l.movhi r17,0x8
     710:	d5 31 5e 28 	l.sw 20008(r17),r11
     714:	85 21 00 00 	l.lwz r9,0(r1)
     718:	44 00 48 00 	l.jr r9
     71c:	9c 21 00 04 	l.addi r1,r1,4

00000720 <perf_cycles_to_time>:
     720:	9c 21 ff d0 	l.addi r1,r1,-48
     724:	d4 01 b0 14 	l.sw 20(r1),r22
     728:	1a 60 00 00 	l.movhi r19,0x0
     72c:	1a c0 00 08 	l.movhi r22,0x8
     730:	d4 01 80 08 	l.sw 8(r1),r16
     734:	d4 01 90 0c 	l.sw 12(r1),r18
     738:	d4 01 a0 10 	l.sw 16(r1),r20
     73c:	86 36 4e 28 	l.lwz r17,20008(r22)
     740:	d4 01 70 04 	l.sw 4(r1),r14
     744:	d4 01 c0 18 	l.sw 24(r1),r24
     748:	d4 01 d0 1c 	l.sw 28(r1),r26
     74c:	d4 01 e0 20 	l.sw 32(r1),r28
     750:	d4 01 f0 24 	l.sw 36(r1),r30
     754:	d4 01 10 28 	l.sw 40(r1),r2
     758:	d4 01 48 2c 	l.sw 44(r1),r9
     75c:	e4 31 98 00 	l.sfne r17,r19
     760:	e2 03 18 04 	l.or r16,r3,r3
     764:	e2 84 20 04 	l.or r20,r4,r4
     768:	10 00 00 0c 	l.bf 798 <perf_cycles_to_time+0x78>
     76c:	e2 45 28 04 	l.or r18,r5,r5
     770:	1a 20 00 00 	l.movhi r17,0x0
     774:	9e 31 2c 64 	l.addi r17,r17,11364
     778:	18 60 00 00 	l.movhi r3,0x0
     77c:	d4 01 88 00 	l.sw 0(r1),r17
     780:	1a 20 00 00 	l.movhi r17,0x0
     784:	86 31 4e 24 	l.lwz r17,20004(r17)
     788:	48 00 88 00 	l.jalr r17
     78c:	9c 63 2c 2d 	l.addi r3,r3,11309
     790:	07 ff ff 57 	l.jal 4ec <assert_die>
     794:	15 00 00 00 	l.nop 0x0
     798:	e0 74 a0 04 	l.or r3,r20,r20
     79c:	e0 92 90 04 	l.or r4,r18,r18
     7a0:	18 a0 00 00 	l.movhi r5,0x0
     7a4:	04 00 06 01 	l.jal 1fa8 <__udivdi3>
     7a8:	84 d6 4e 28 	l.lwz r6,20008(r22)
     7ac:	e2 8b 58 04 	l.or r20,r11,r11
     7b0:	18 a0 00 00 	l.movhi r5,0x0
     7b4:	a8 c0 03 e8 	l.ori r6,r0,0x3e8
     7b8:	e0 74 a0 04 	l.or r3,r20,r20
     7bc:	e0 8c 60 04 	l.or r4,r12,r12
     7c0:	04 00 07 69 	l.jal 2564 <__umoddi3>
     7c4:	e2 4c 60 04 	l.or r18,r12,r12
     7c8:	18 a0 00 00 	l.movhi r5,0x0
     7cc:	a8 c0 03 e8 	l.ori r6,r0,0x3e8
     7d0:	e0 74 a0 04 	l.or r3,r20,r20
     7d4:	e0 92 90 04 	l.or r4,r18,r18
     7d8:	04 00 05 f4 	l.jal 1fa8 <__udivdi3>
     7dc:	e3 8c 60 04 	l.or r28,r12,r12
     7e0:	1a 20 00 00 	l.movhi r17,0x0
     7e4:	e4 34 88 00 	l.sfne r20,r17
     7e8:	e0 4b 58 04 	l.or r2,r11,r11
     7ec:	e3 4c 60 04 	l.or r26,r12,r12
     7f0:	10 00 00 06 	l.bf 808 <perf_cycles_to_time+0xe8>
     7f4:	e1 cc 60 04 	l.or r14,r12,r12
     7f8:	aa 20 ee 47 	l.ori r17,r0,0xee47
     7fc:	e4 52 88 00 	l.sfgtu r18,r17
     800:	0c 00 00 36 	l.bnf 8d8 <perf_cycles_to_time+0x1b8>
     804:	15 00 00 00 	l.nop 0x0
     808:	18 a0 00 00 	l.movhi r5,0x0
     80c:	a8 c0 00 3c 	l.ori r6,r0,0x3c
     810:	e0 62 10 04 	l.or r3,r2,r2
     814:	04 00 05 e5 	l.jal 1fa8 <__udivdi3>
     818:	e0 9a d0 04 	l.or r4,r26,r26
     81c:	18 a0 00 00 	l.movhi r5,0x0
     820:	a8 c0 00 3c 	l.ori r6,r0,0x3c
     824:	e0 62 10 04 	l.or r3,r2,r2
     828:	e0 9a d0 04 	l.or r4,r26,r26
     82c:	e3 cb 58 04 	l.or r30,r11,r11
     830:	e3 0c 60 04 	l.or r24,r12,r12
     834:	04 00 07 4c 	l.jal 2564 <__umoddi3>
     838:	e2 cc 60 04 	l.or r22,r12,r12
     83c:	1a 20 00 00 	l.movhi r17,0x0
     840:	e4 34 88 00 	l.sfne r20,r17
     844:	10 00 00 07 	l.bf 860 <perf_cycles_to_time+0x140>
     848:	e1 cc 60 04 	l.or r14,r12,r12
     84c:	1a 20 00 37 	l.movhi r17,0x37
     850:	aa 31 d8 df 	l.ori r17,r17,0xd8df
     854:	e4 52 88 00 	l.sfgtu r18,r17
     858:	0c 00 00 23 	l.bnf 8e4 <perf_cycles_to_time+0x1c4>
     85c:	15 00 00 00 	l.nop 0x0
     860:	18 a0 00 00 	l.movhi r5,0x0
     864:	a8 c0 00 3c 	l.ori r6,r0,0x3c
     868:	e0 7e f0 04 	l.or r3,r30,r30
     86c:	04 00 05 cf 	l.jal 1fa8 <__udivdi3>
     870:	e0 98 c0 04 	l.or r4,r24,r24
     874:	18 a0 00 00 	l.movhi r5,0x0
     878:	a8 c0 00 3c 	l.ori r6,r0,0x3c
     87c:	e0 7e f0 04 	l.or r3,r30,r30
     880:	e0 98 c0 04 	l.or r4,r24,r24
     884:	04 00 07 38 	l.jal 2564 <__umoddi3>
     888:	e2 4c 60 04 	l.or r18,r12,r12
     88c:	e2 cc 60 04 	l.or r22,r12,r12
     890:	d4 10 90 00 	l.sw 0(r16),r18
     894:	d4 10 b0 04 	l.sw 4(r16),r22
     898:	d4 10 70 08 	l.sw 8(r16),r14
     89c:	d4 10 e0 0c 	l.sw 12(r16),r28
     8a0:	e1 70 80 04 	l.or r11,r16,r16
     8a4:	85 c1 00 04 	l.lwz r14,4(r1)
     8a8:	86 01 00 08 	l.lwz r16,8(r1)
     8ac:	86 41 00 0c 	l.lwz r18,12(r1)
     8b0:	86 81 00 10 	l.lwz r20,16(r1)
     8b4:	86 c1 00 14 	l.lwz r22,20(r1)
     8b8:	87 01 00 18 	l.lwz r24,24(r1)
     8bc:	87 41 00 1c 	l.lwz r26,28(r1)
     8c0:	87 81 00 20 	l.lwz r28,32(r1)
     8c4:	87 c1 00 24 	l.lwz r30,36(r1)
     8c8:	84 41 00 28 	l.lwz r2,40(r1)
     8cc:	85 21 00 2c 	l.lwz r9,44(r1)
     8d0:	44 00 48 00 	l.jr r9
     8d4:	9c 21 00 30 	l.addi r1,r1,48
     8d8:	1a 40 00 00 	l.movhi r18,0x0
     8dc:	03 ff ff ed 	l.j 890 <perf_cycles_to_time+0x170>
     8e0:	1a c0 00 00 	l.movhi r22,0x0
     8e4:	03 ff ff eb 	l.j 890 <perf_cycles_to_time+0x170>
     8e8:	1a 40 00 00 	l.movhi r18,0x0

000008ec <perf_print_cycles>:
     8ec:	9c 21 ff ec 	l.addi r1,r1,-20
     8f0:	1a 20 00 00 	l.movhi r17,0x0
     8f4:	e4 04 88 00 	l.sfeq r4,r17
     8f8:	0c 00 00 04 	l.bnf 908 <perf_print_cycles+0x1c>
     8fc:	d4 01 48 10 	l.sw 16(r1),r9
     900:	18 80 00 00 	l.movhi r4,0x0
     904:	9c 84 2c 9e 	l.addi r4,r4,11422
     908:	e2 23 18 00 	l.add r17,r3,r3
     90c:	9e 71 00 0b 	l.addi r19,r17,11
     910:	b6 73 f8 00 	l.mfspr r19,r19,0xf800
     914:	9e 31 00 0c 	l.addi r17,r17,12
     918:	b6 31 f8 00 	l.mfspr r17,r17,0xf800
     91c:	d4 01 18 04 	l.sw 4(r1),r3
     920:	18 60 00 00 	l.movhi r3,0x0
     924:	d4 01 88 08 	l.sw 8(r1),r17
     928:	d4 01 98 0c 	l.sw 12(r1),r19
     92c:	d4 01 20 00 	l.sw 0(r1),r4
     930:	04 00 04 52 	l.jal 1a78 <printf_>
     934:	9c 63 2c a6 	l.addi r3,r3,11430
     938:	85 21 00 10 	l.lwz r9,16(r1)
     93c:	44 00 48 00 	l.jr r9
     940:	9c 21 00 14 	l.addi r1,r1,20

00000944 <perf_print_time>:
     944:	9c 21 ff cc 	l.addi r1,r1,-52
     948:	1a 20 00 00 	l.movhi r17,0x0
     94c:	d4 01 90 2c 	l.sw 44(r1),r18
     950:	d4 01 80 28 	l.sw 40(r1),r16
     954:	d4 01 48 30 	l.sw 48(r1),r9
     958:	e4 04 88 00 	l.sfeq r4,r17
     95c:	0c 00 00 1d 	l.bnf 9d0 <perf_print_time+0x8c>
     960:	e2 43 18 04 	l.or r18,r3,r3
     964:	1a 00 00 00 	l.movhi r16,0x0
     968:	9e 10 2c 9e 	l.addi r16,r16,11422
     96c:	e0 92 90 00 	l.add r4,r18,r18
     970:	9c a4 00 0b 	l.addi r5,r4,11
     974:	b4 a5 f8 00 	l.mfspr r5,r5,0xf800
     978:	9c 84 00 0c 	l.addi r4,r4,12
     97c:	b4 84 f8 00 	l.mfspr r4,r4,0xf800
     980:	07 ff ff 68 	l.jal 720 <perf_cycles_to_time>
     984:	9c 61 00 18 	l.addi r3,r1,24
     988:	86 21 00 24 	l.lwz r17,36(r1)
     98c:	d4 01 88 14 	l.sw 20(r1),r17
     990:	86 21 00 20 	l.lwz r17,32(r1)
     994:	18 60 00 00 	l.movhi r3,0x0
     998:	d4 01 88 10 	l.sw 16(r1),r17
     99c:	86 21 00 1c 	l.lwz r17,28(r1)
     9a0:	d4 01 90 04 	l.sw 4(r1),r18
     9a4:	d4 01 88 0c 	l.sw 12(r1),r17
     9a8:	d4 01 80 00 	l.sw 0(r1),r16
     9ac:	86 21 00 18 	l.lwz r17,24(r1)
     9b0:	9c 63 2c c2 	l.addi r3,r3,11458
     9b4:	04 00 04 31 	l.jal 1a78 <printf_>
     9b8:	d4 01 88 08 	l.sw 8(r1),r17
     9bc:	85 21 00 30 	l.lwz r9,48(r1)
     9c0:	86 01 00 28 	l.lwz r16,40(r1)
     9c4:	86 41 00 2c 	l.lwz r18,44(r1)
     9c8:	44 00 48 00 	l.jr r9
     9cc:	9c 21 00 34 	l.addi r1,r1,52
     9d0:	03 ff ff e7 	l.j 96c <perf_print_time+0x28>
     9d4:	e2 04 20 04 	l.or r16,r4,r4

000009d8 <platform_init>:
     9d8:	00 00 05 09 	l.j 1dfc <uart_init>
     9dc:	18 60 50 00 	l.movhi r3,0x5000

000009e0 <_putchar>:
     9e0:	9c 21 ff f8 	l.addi r1,r1,-8
     9e4:	aa 20 00 18 	l.ori r17,r0,0x18
     9e8:	d4 01 80 00 	l.sw 0(r1),r16
     9ec:	e2 03 88 08 	l.sll r16,r3,r17
     9f0:	e2 10 88 88 	l.sra r16,r16,r17
     9f4:	e0 90 80 04 	l.or r4,r16,r16
     9f8:	d4 01 48 04 	l.sw 4(r1),r9
     9fc:	04 00 05 1f 	l.jal 1e78 <uart_putc>
     a00:	18 60 50 00 	l.movhi r3,0x5000
     a04:	e0 70 80 04 	l.or r3,r16,r16
     a08:	85 21 00 04 	l.lwz r9,4(r1)
     a0c:	86 01 00 00 	l.lwz r16,0(r1)
     a10:	00 00 05 56 	l.j 1f68 <vga_putc>
     a14:	9c 21 00 08 	l.addi r1,r1,8

00000a18 <putchar>:
     a18:	9c 21 ff fc 	l.addi r1,r1,-4
     a1c:	d4 01 48 00 	l.sw 0(r1),r9
     a20:	07 ff ff f0 	l.jal 9e0 <_putchar>
     a24:	15 00 00 00 	l.nop 0x0
     a28:	19 60 00 00 	l.movhi r11,0x0
     a2c:	85 21 00 00 	l.lwz r9,0(r1)
     a30:	44 00 48 00 	l.jr r9
     a34:	9c 21 00 04 	l.addi r1,r1,4

00000a38 <puts>:
     a38:	9c 21 ff f8 	l.addi r1,r1,-8
     a3c:	d4 01 80 00 	l.sw 0(r1),r16
     a40:	e0 83 18 04 	l.or r4,r3,r3
     a44:	e2 03 18 04 	l.or r16,r3,r3
     a48:	d4 01 48 04 	l.sw 4(r1),r9
     a4c:	04 00 05 1b 	l.jal 1eb8 <uart_puts>
     a50:	18 60 50 00 	l.movhi r3,0x5000
     a54:	a8 80 00 0a 	l.ori r4,r0,0xa
     a58:	04 00 05 08 	l.jal 1e78 <uart_putc>
     a5c:	18 60 50 00 	l.movhi r3,0x5000
     a60:	04 00 05 46 	l.jal 1f78 <vga_puts>
     a64:	e0 70 80 04 	l.or r3,r16,r16
     a68:	04 00 05 40 	l.jal 1f68 <vga_putc>
     a6c:	a8 60 00 0a 	l.ori r3,r0,0xa
     a70:	19 60 00 00 	l.movhi r11,0x0
     a74:	86 01 00 00 	l.lwz r16,0(r1)
     a78:	85 21 00 04 	l.lwz r9,4(r1)
     a7c:	44 00 48 00 	l.jr r9
     a80:	9c 21 00 08 	l.addi r1,r1,8

00000a84 <getchar>:
     a84:	00 00 05 24 	l.j 1f14 <uart_getc>
     a88:	18 60 50 00 	l.movhi r3,0x5000

00000a8c <_out_buffer>:
     a8c:	aa 20 00 18 	l.ori r17,r0,0x18
     a90:	e0 63 88 08 	l.sll r3,r3,r17
     a94:	e4 65 30 00 	l.sfgeu r5,r6
     a98:	10 00 00 04 	l.bf aa8 <_out_buffer+0x1c>
     a9c:	e0 63 88 88 	l.sra r3,r3,r17
     aa0:	e0 84 28 00 	l.add r4,r4,r5
     aa4:	d8 04 18 00 	l.sb 0(r4),r3
     aa8:	44 00 48 00 	l.jr r9
     aac:	15 00 00 00 	l.nop 0x0

00000ab0 <_out_null>:
     ab0:	44 00 48 00 	l.jr r9
     ab4:	15 00 00 00 	l.nop 0x0

00000ab8 <_ntoa_format>:
     ab8:	9c 21 ff d0 	l.addi r1,r1,-48
     abc:	d4 01 d0 1c 	l.sw 28(r1),r26
     ac0:	1b a0 00 00 	l.movhi r29,0x0
     ac4:	86 21 00 40 	l.lwz r17,64(r1)
     ac8:	a7 51 00 02 	l.andi r26,r17,0x2
     acc:	d4 01 70 04 	l.sw 4(r1),r14
     ad0:	d4 01 80 08 	l.sw 8(r1),r16
     ad4:	d4 01 a0 10 	l.sw 16(r1),r20
     ad8:	d4 01 b0 14 	l.sw 20(r1),r22
     adc:	d4 01 c0 18 	l.sw 24(r1),r24
     ae0:	d4 01 e0 20 	l.sw 32(r1),r28
     ae4:	d4 01 f0 24 	l.sw 36(r1),r30
     ae8:	d4 01 90 0c 	l.sw 12(r1),r18
     aec:	d4 01 10 28 	l.sw 40(r1),r2
     af0:	d4 01 48 2c 	l.sw 44(r1),r9
     af4:	e4 3a e8 00 	l.sfne r26,r29
     af8:	e2 83 18 04 	l.or r20,r3,r3
     afc:	e2 c4 20 04 	l.or r22,r4,r4
     b00:	e1 c5 28 04 	l.or r14,r5,r5
     b04:	e3 06 30 04 	l.or r24,r6,r6
     b08:	e3 87 38 04 	l.or r28,r7,r7
     b0c:	e2 08 40 04 	l.or r16,r8,r8
     b10:	8e e1 00 33 	l.lbz r23,51(r1)
     b14:	86 61 00 34 	l.lwz r19,52(r1)
     b18:	86 a1 00 38 	l.lwz r21,56(r1)
     b1c:	10 00 00 24 	l.bf bac <_ntoa_format+0xf4>
     b20:	87 c1 00 3c 	l.lwz r30,60(r1)
     b24:	e4 1e e8 00 	l.sfeq r30,r29
     b28:	10 00 00 0d 	l.bf b5c <_ntoa_format+0xa4>
     b2c:	a7 31 00 01 	l.andi r25,r17,0x1
     b30:	e4 19 e8 00 	l.sfeq r25,r29
     b34:	10 00 00 0b 	l.bf b60 <_ntoa_format+0xa8>
     b38:	ab 60 00 20 	l.ori r27,r0,0x20
     b3c:	e4 37 e8 00 	l.sfne r23,r29
     b40:	10 00 00 06 	l.bf b58 <_ntoa_format+0xa0>
     b44:	15 00 00 00 	l.nop 0x0
     b48:	a7 71 00 0c 	l.andi r27,r17,0xc
     b4c:	e4 1b e8 00 	l.sfeq r27,r29
     b50:	10 00 00 03 	l.bf b5c <_ntoa_format+0xa4>
     b54:	15 00 00 00 	l.nop 0x0
     b58:	9f de ff ff 	l.addi r30,r30,-1
     b5c:	ab 60 00 20 	l.ori r27,r0,0x20
     b60:	00 00 00 06 	l.j b78 <_ntoa_format+0xc0>
     b64:	ab a0 00 30 	l.ori r29,r0,0x30
     b68:	0c 00 00 07 	l.bnf b84 <_ntoa_format+0xcc>
     b6c:	e3 fc 80 00 	l.add r31,r28,r16
     b70:	d8 1f e8 00 	l.sb 0(r31),r29
     b74:	9e 10 00 01 	l.addi r16,r16,1
     b78:	e4 55 80 00 	l.sfgtu r21,r16
     b7c:	13 ff ff fb 	l.bf b68 <_ntoa_format+0xb0>
     b80:	e4 30 d8 00 	l.sfne r16,r27
     b84:	1b 60 00 00 	l.movhi r27,0x0
     b88:	e4 39 d8 00 	l.sfne r25,r27
     b8c:	0c 00 00 08 	l.bnf bac <_ntoa_format+0xf4>
     b90:	ab 20 00 20 	l.ori r25,r0,0x20
     b94:	ab 60 00 30 	l.ori r27,r0,0x30
     b98:	e4 70 f0 00 	l.sfgeu r16,r30
     b9c:	10 00 00 04 	l.bf bac <_ntoa_format+0xf4>
     ba0:	e4 30 c8 00 	l.sfne r16,r25
     ba4:	10 00 00 38 	l.bf c84 <_ntoa_format+0x1cc>
     ba8:	15 00 00 00 	l.nop 0x0
     bac:	a7 31 00 10 	l.andi r25,r17,0x10
     bb0:	1b 60 00 00 	l.movhi r27,0x0
     bb4:	e4 19 d8 00 	l.sfeq r25,r27
     bb8:	10 00 00 27 	l.bf c54 <_ntoa_format+0x19c>
     bbc:	a7 31 04 00 	l.andi r25,r17,0x400
     bc0:	e4 39 d8 00 	l.sfne r25,r27
     bc4:	10 00 00 35 	l.bf c98 <_ntoa_format+0x1e0>
     bc8:	e4 10 d8 00 	l.sfeq r16,r27
     bcc:	10 00 00 33 	l.bf c98 <_ntoa_format+0x1e0>
     bd0:	e4 10 a8 00 	l.sfeq r16,r21
     bd4:	10 00 00 04 	l.bf be4 <_ntoa_format+0x12c>
     bd8:	e4 30 f0 00 	l.sfne r16,r30
     bdc:	10 00 00 30 	l.bf c9c <_ntoa_format+0x1e4>
     be0:	aa a0 00 10 	l.ori r21,r0,0x10
     be4:	9e b0 ff ff 	l.addi r21,r16,-1
     be8:	1b 20 00 00 	l.movhi r25,0x0
     bec:	e4 15 c8 00 	l.sfeq r21,r25
     bf0:	10 00 00 29 	l.bf c94 <_ntoa_format+0x1dc>
     bf4:	ab 20 00 10 	l.ori r25,r0,0x10
     bf8:	e4 33 c8 00 	l.sfne r19,r25
     bfc:	10 00 00 86 	l.bf e14 <_ntoa_format+0x35c>
     c00:	ab 20 00 02 	l.ori r25,r0,0x2
     c04:	9e 10 ff fe 	l.addi r16,r16,-2
     c08:	a6 71 00 20 	l.andi r19,r17,0x20
     c0c:	1a a0 00 00 	l.movhi r21,0x0
     c10:	e4 33 a8 00 	l.sfne r19,r21
     c14:	10 00 00 2d 	l.bf cc8 <_ntoa_format+0x210>
     c18:	aa 60 00 20 	l.ori r19,r0,0x20
     c1c:	e4 10 98 00 	l.sfeq r16,r19
     c20:	10 00 00 2d 	l.bf cd4 <_ntoa_format+0x21c>
     c24:	e2 7c 80 00 	l.add r19,r28,r16
     c28:	aa a0 00 78 	l.ori r21,r0,0x78
     c2c:	d8 13 a8 00 	l.sb 0(r19),r21
     c30:	9e 10 00 01 	l.addi r16,r16,1
     c34:	aa 60 00 20 	l.ori r19,r0,0x20
     c38:	e4 10 98 00 	l.sfeq r16,r19
     c3c:	10 00 00 26 	l.bf cd4 <_ntoa_format+0x21c>
     c40:	15 00 00 00 	l.nop 0x0
     c44:	e2 7c 80 00 	l.add r19,r28,r16
     c48:	aa a0 00 30 	l.ori r21,r0,0x30
     c4c:	d8 13 a8 00 	l.sb 0(r19),r21
     c50:	9e 10 00 01 	l.addi r16,r16,1
     c54:	aa 60 00 20 	l.ori r19,r0,0x20
     c58:	e4 10 98 00 	l.sfeq r16,r19
     c5c:	10 00 00 1e 	l.bf cd4 <_ntoa_format+0x21c>
     c60:	1a a0 00 00 	l.movhi r21,0x0
     c64:	e4 17 a8 00 	l.sfeq r23,r21
     c68:	10 00 00 3e 	l.bf d60 <_ntoa_format+0x2a8>
     c6c:	a6 b1 00 04 	l.andi r21,r17,0x4
     c70:	e2 7c 80 00 	l.add r19,r28,r16
     c74:	aa a0 00 2d 	l.ori r21,r0,0x2d
     c78:	d8 13 a8 00 	l.sb 0(r19),r21
     c7c:	00 00 00 17 	l.j cd8 <_ntoa_format+0x220>
     c80:	9e 10 00 01 	l.addi r16,r16,1
     c84:	e3 bc 80 00 	l.add r29,r28,r16
     c88:	d8 1d d8 00 	l.sb 0(r29),r27
     c8c:	03 ff ff c3 	l.j b98 <_ntoa_format+0xe0>
     c90:	9e 10 00 01 	l.addi r16,r16,1
     c94:	1a 00 00 00 	l.movhi r16,0x0
     c98:	aa a0 00 10 	l.ori r21,r0,0x10
     c9c:	e4 33 a8 00 	l.sfne r19,r21
     ca0:	0f ff ff da 	l.bnf c08 <_ntoa_format+0x150>
     ca4:	aa a0 00 02 	l.ori r21,r0,0x2
     ca8:	e4 33 a8 00 	l.sfne r19,r21
     cac:	13 ff ff e3 	l.bf c38 <_ntoa_format+0x180>
     cb0:	aa 60 00 20 	l.ori r19,r0,0x20
     cb4:	e4 10 98 00 	l.sfeq r16,r19
     cb8:	10 00 00 07 	l.bf cd4 <_ntoa_format+0x21c>
     cbc:	e2 7c 80 00 	l.add r19,r28,r16
     cc0:	03 ff ff db 	l.j c2c <_ntoa_format+0x174>
     cc4:	aa a0 00 62 	l.ori r21,r0,0x62
     cc8:	e4 30 98 00 	l.sfne r16,r19
     ccc:	10 00 00 23 	l.bf d58 <_ntoa_format+0x2a0>
     cd0:	e2 7c 80 00 	l.add r19,r28,r16
     cd4:	aa 00 00 20 	l.ori r16,r0,0x20
     cd8:	a6 31 00 03 	l.andi r17,r17,0x3
     cdc:	1a 60 00 00 	l.movhi r19,0x0
     ce0:	e4 11 98 00 	l.sfeq r17,r19
     ce4:	10 00 00 3a 	l.bf dcc <_ntoa_format+0x314>
     ce8:	e2 50 80 04 	l.or r18,r16,r16
     cec:	e2 4e 70 04 	l.or r18,r14,r14
     cf0:	e2 50 90 00 	l.add r18,r16,r18
     cf4:	1a 20 00 00 	l.movhi r17,0x0
     cf8:	e4 30 88 00 	l.sfne r16,r17
     cfc:	e1 72 90 04 	l.or r11,r18,r18
     d00:	10 00 00 36 	l.bf dd8 <_ntoa_format+0x320>
     d04:	e0 b2 80 02 	l.sub r5,r18,r16
     d08:	e4 1a 88 00 	l.sfeq r26,r17
     d0c:	10 00 00 06 	l.bf d24 <_ntoa_format+0x26c>
     d10:	e2 12 70 02 	l.sub r16,r18,r14
     d14:	aa 40 00 20 	l.ori r18,r0,0x20
     d18:	e4 5e 80 00 	l.sfgtu r30,r16
     d1c:	10 00 00 37 	l.bf df8 <_ntoa_format+0x340>
     d20:	e1 6e 80 00 	l.add r11,r14,r16
     d24:	85 c1 00 04 	l.lwz r14,4(r1)
     d28:	86 01 00 08 	l.lwz r16,8(r1)
     d2c:	86 41 00 0c 	l.lwz r18,12(r1)
     d30:	86 81 00 10 	l.lwz r20,16(r1)
     d34:	86 c1 00 14 	l.lwz r22,20(r1)
     d38:	87 01 00 18 	l.lwz r24,24(r1)
     d3c:	87 41 00 1c 	l.lwz r26,28(r1)
     d40:	87 81 00 20 	l.lwz r28,32(r1)
     d44:	87 c1 00 24 	l.lwz r30,36(r1)
     d48:	84 41 00 28 	l.lwz r2,40(r1)
     d4c:	85 21 00 2c 	l.lwz r9,44(r1)
     d50:	44 00 48 00 	l.jr r9
     d54:	9c 21 00 30 	l.addi r1,r1,48
     d58:	03 ff ff b5 	l.j c2c <_ntoa_format+0x174>
     d5c:	aa a0 00 58 	l.ori r21,r0,0x58
     d60:	1a e0 00 00 	l.movhi r23,0x0
     d64:	e4 15 b8 00 	l.sfeq r21,r23
     d68:	10 00 00 04 	l.bf d78 <_ntoa_format+0x2c0>
     d6c:	aa a0 00 2b 	l.ori r21,r0,0x2b
     d70:	03 ff ff c2 	l.j c78 <_ntoa_format+0x1c0>
     d74:	e2 7c 80 00 	l.add r19,r28,r16
     d78:	a6 b1 00 08 	l.andi r21,r17,0x8
     d7c:	e4 15 b8 00 	l.sfeq r21,r23
     d80:	13 ff ff d6 	l.bf cd8 <_ntoa_format+0x220>
     d84:	e2 bc 80 00 	l.add r21,r28,r16
     d88:	03 ff ff bd 	l.j c7c <_ntoa_format+0x1c4>
     d8c:	d8 15 98 00 	l.sb 0(r21),r19
     d90:	d4 01 18 00 	l.sw 0(r1),r3
     d94:	e0 d8 c0 04 	l.or r6,r24,r24
     d98:	48 00 a0 00 	l.jalr r20
     d9c:	e0 96 b0 04 	l.or r4,r22,r22
     da0:	9e 52 00 01 	l.addi r18,r18,1
     da4:	84 61 00 00 	l.lwz r3,0(r1)
     da8:	e4 5e 90 00 	l.sfgtu r30,r18
     dac:	13 ff ff f9 	l.bf d90 <_ntoa_format+0x2d8>
     db0:	e0 a2 90 00 	l.add r5,r2,r18
     db4:	e4 b0 f0 00 	l.sfleu r16,r30
     db8:	10 00 00 03 	l.bf dc4 <_ntoa_format+0x30c>
     dbc:	e2 5e 80 02 	l.sub r18,r30,r16
     dc0:	1a 40 00 00 	l.movhi r18,0x0
     dc4:	03 ff ff cb 	l.j cf0 <_ntoa_format+0x238>
     dc8:	e2 52 70 00 	l.add r18,r18,r14
     dcc:	e0 4e 80 02 	l.sub r2,r14,r16
     dd0:	03 ff ff f6 	l.j da8 <_ntoa_format+0x2f0>
     dd4:	a8 60 00 20 	l.ori r3,r0,0x20
     dd8:	9e 10 ff ff 	l.addi r16,r16,-1
     ddc:	e2 3c 80 00 	l.add r17,r28,r16
     de0:	e0 d8 c0 04 	l.or r6,r24,r24
     de4:	e0 96 b0 04 	l.or r4,r22,r22
     de8:	48 00 a0 00 	l.jalr r20
     dec:	8c 71 00 00 	l.lbz r3,0(r17)
     df0:	03 ff ff c2 	l.j cf8 <_ntoa_format+0x240>
     df4:	1a 20 00 00 	l.movhi r17,0x0
     df8:	e0 d8 c0 04 	l.or r6,r24,r24
     dfc:	e0 ab 58 04 	l.or r5,r11,r11
     e00:	e0 96 b0 04 	l.or r4,r22,r22
     e04:	48 00 a0 00 	l.jalr r20
     e08:	e0 72 90 04 	l.or r3,r18,r18
     e0c:	03 ff ff c3 	l.j d18 <_ntoa_format+0x260>
     e10:	9e 10 00 01 	l.addi r16,r16,1
     e14:	e4 13 c8 00 	l.sfeq r19,r25
     e18:	0f ff ff 8b 	l.bnf c44 <_ntoa_format+0x18c>
     e1c:	e2 15 a8 04 	l.or r16,r21,r21
     e20:	03 ff ff a8 	l.j cc0 <_ntoa_format+0x208>
     e24:	e2 7c 80 00 	l.add r19,r28,r16

00000e28 <_ntoa_long>:
     e28:	9c 21 ff c8 	l.addi r1,r1,-56
     e2c:	1a 20 00 00 	l.movhi r17,0x0
     e30:	d4 01 48 34 	l.sw 52(r1),r9
     e34:	e4 27 88 00 	l.sfne r7,r17
     e38:	a5 08 00 ff 	l.andi r8,r8,0xff
     e3c:	86 e1 00 38 	l.lwz r23,56(r1)
     e40:	10 00 00 04 	l.bf e50 <_ntoa_long+0x28>
     e44:	86 a1 00 44 	l.lwz r21,68(r1)
     e48:	ae 20 ff ef 	l.xori r17,r0,-17
     e4c:	e2 b5 88 03 	l.and r21,r21,r17
     e50:	a6 35 04 00 	l.andi r17,r21,0x400
     e54:	1a 60 00 00 	l.movhi r19,0x0
     e58:	e4 11 98 00 	l.sfeq r17,r19
     e5c:	10 00 00 04 	l.bf e6c <_ntoa_long+0x44>
     e60:	e4 07 98 00 	l.sfeq r7,r19
     e64:	10 00 00 20 	l.bf ee4 <_ntoa_long+0xbc>
     e68:	15 00 00 00 	l.nop 0x0
     e6c:	a6 35 00 20 	l.andi r17,r21,0x20
     e70:	1a 60 00 00 	l.movhi r19,0x0
     e74:	e4 31 98 00 	l.sfne r17,r19
     e78:	10 00 00 03 	l.bf e84 <_ntoa_long+0x5c>
     e7c:	aa 20 00 41 	l.ori r17,r0,0x41
     e80:	aa 20 00 61 	l.ori r17,r0,0x61
     e84:	a6 31 00 ff 	l.andi r17,r17,0xff
     e88:	e3 27 38 04 	l.or r25,r7,r7
     e8c:	9f a1 00 14 	l.addi r29,r1,20
     e90:	18 e0 00 00 	l.movhi r7,0x0
     e94:	a9 e0 00 09 	l.ori r15,r0,0x9
     e98:	9e 71 ff f6 	l.addi r19,r17,-10
     e9c:	a9 a0 00 20 	l.ori r13,r0,0x20
     ea0:	e3 f9 bb 0a 	l.divu r31,r25,r23
     ea4:	e3 7f bb 06 	l.mul r27,r31,r23
     ea8:	e3 79 d8 02 	l.sub r27,r25,r27
     eac:	e4 5b 78 00 	l.sfgtu r27,r15
     eb0:	10 00 00 1c 	l.bf f20 <_ntoa_long+0xf8>
     eb4:	a6 3b 00 ff 	l.andi r17,r27,0xff
     eb8:	9e 31 00 30 	l.addi r17,r17,48
     ebc:	ab 60 00 18 	l.ori r27,r0,0x18
     ec0:	e2 31 d8 08 	l.sll r17,r17,r27
     ec4:	e2 31 d8 88 	l.sra r17,r17,r27
     ec8:	d8 1d 88 00 	l.sb 0(r29),r17
     ecc:	e4 99 b8 00 	l.sfltu r25,r23
     ed0:	10 00 00 05 	l.bf ee4 <_ntoa_long+0xbc>
     ed4:	9c e7 00 01 	l.addi r7,r7,1
     ed8:	e4 27 68 00 	l.sfne r7,r13
     edc:	10 00 00 0f 	l.bf f18 <_ntoa_long+0xf0>
     ee0:	9f bd 00 01 	l.addi r29,r29,1
     ee4:	86 21 00 40 	l.lwz r17,64(r1)
     ee8:	d8 01 40 03 	l.sb 3(r1),r8
     eec:	d4 01 88 0c 	l.sw 12(r1),r17
     ef0:	d4 01 a8 10 	l.sw 16(r1),r21
     ef4:	86 21 00 3c 	l.lwz r17,60(r1)
     ef8:	d4 01 b8 04 	l.sw 4(r1),r23
     efc:	d4 01 88 08 	l.sw 8(r1),r17
     f00:	e1 07 38 04 	l.or r8,r7,r7
     f04:	07 ff fe ed 	l.jal ab8 <_ntoa_format>
     f08:	9c e1 00 14 	l.addi r7,r1,20
     f0c:	85 21 00 34 	l.lwz r9,52(r1)
     f10:	44 00 48 00 	l.jr r9
     f14:	9c 21 00 38 	l.addi r1,r1,56
     f18:	03 ff ff e2 	l.j ea0 <_ntoa_long+0x78>
     f1c:	e3 3f f8 04 	l.or r25,r31,r31
     f20:	03 ff ff e7 	l.j ebc <_ntoa_long+0x94>
     f24:	e2 31 98 00 	l.add r17,r17,r19

00000f28 <_ntoa_long_long>:
     f28:	9c 21 ff 90 	l.addi r1,r1,-112
     f2c:	e2 27 40 04 	l.or r17,r7,r8
     f30:	1a 60 00 00 	l.movhi r19,0x0
     f34:	d4 01 70 44 	l.sw 68(r1),r14
     f38:	d4 01 90 4c 	l.sw 76(r1),r18
     f3c:	d4 01 a0 50 	l.sw 80(r1),r20
     f40:	d4 01 c0 58 	l.sw 88(r1),r24
     f44:	d4 01 f0 64 	l.sw 100(r1),r30
     f48:	d4 01 80 48 	l.sw 72(r1),r16
     f4c:	d4 01 b0 54 	l.sw 84(r1),r22
     f50:	d4 01 d0 5c 	l.sw 92(r1),r26
     f54:	d4 01 e0 60 	l.sw 96(r1),r28
     f58:	d4 01 10 68 	l.sw 104(r1),r2
     f5c:	d4 01 48 6c 	l.sw 108(r1),r9
     f60:	d4 01 18 14 	l.sw 20(r1),r3
     f64:	d4 01 20 18 	l.sw 24(r1),r4
     f68:	d4 01 28 1c 	l.sw 28(r1),r5
     f6c:	d4 01 30 20 	l.sw 32(r1),r6
     f70:	e4 31 98 00 	l.sfne r17,r19
     f74:	e3 c7 38 04 	l.or r30,r7,r7
     f78:	e1 c8 40 04 	l.or r14,r8,r8
     f7c:	87 01 00 74 	l.lwz r24,116(r1)
     f80:	86 41 00 78 	l.lwz r18,120(r1)
     f84:	10 00 00 04 	l.bf f94 <_ntoa_long_long+0x6c>
     f88:	86 81 00 84 	l.lwz r20,132(r1)
     f8c:	ae a0 ff ef 	l.xori r21,r0,-17
     f90:	e2 94 a8 03 	l.and r20,r20,r21
     f94:	a6 b4 04 00 	l.andi r21,r20,0x400
     f98:	1a 60 00 00 	l.movhi r19,0x0
     f9c:	e4 15 98 00 	l.sfeq r21,r19
     fa0:	10 00 00 04 	l.bf fb0 <_ntoa_long_long+0x88>
     fa4:	e4 11 98 00 	l.sfeq r17,r19
     fa8:	10 00 00 2e 	l.bf 1060 <_ntoa_long_long+0x138>
     fac:	18 40 00 00 	l.movhi r2,0x0
     fb0:	a6 34 00 20 	l.andi r17,r20,0x20
     fb4:	1a 60 00 00 	l.movhi r19,0x0
     fb8:	e4 31 98 00 	l.sfne r17,r19
     fbc:	10 00 00 03 	l.bf fc8 <_ntoa_long_long+0xa0>
     fc0:	aa 00 00 41 	l.ori r16,r0,0x41
     fc4:	aa 00 00 61 	l.ori r16,r0,0x61
     fc8:	a6 10 00 ff 	l.andi r16,r16,0xff
     fcc:	9e c1 00 24 	l.addi r22,r1,36
     fd0:	18 40 00 00 	l.movhi r2,0x0
     fd4:	ab 80 00 09 	l.ori r28,r0,0x9
     fd8:	9e 10 ff f6 	l.addi r16,r16,-10
     fdc:	ab 40 00 20 	l.ori r26,r0,0x20
     fe0:	e0 b8 c0 04 	l.or r5,r24,r24
     fe4:	e0 d2 90 04 	l.or r6,r18,r18
     fe8:	e0 7e f0 04 	l.or r3,r30,r30
     fec:	04 00 05 5e 	l.jal 2564 <__umoddi3>
     ff0:	e0 8e 70 04 	l.or r4,r14,r14
     ff4:	aa 60 00 18 	l.ori r19,r0,0x18
     ff8:	a6 2c 00 ff 	l.andi r17,r12,0xff
     ffc:	e1 8c 98 08 	l.sll r12,r12,r19
    1000:	e1 8c 98 88 	l.sra r12,r12,r19
    1004:	e5 4c e0 00 	l.sfgts r12,r28
    1008:	10 00 00 35 	l.bf 10dc <_ntoa_long_long+0x1b4>
    100c:	15 00 00 00 	l.nop 0x0
    1010:	9e 31 00 30 	l.addi r17,r17,48
    1014:	e2 31 98 08 	l.sll r17,r17,r19
    1018:	e2 31 98 88 	l.sra r17,r17,r19
    101c:	d8 16 88 00 	l.sb 0(r22),r17
    1020:	e0 b8 c0 04 	l.or r5,r24,r24
    1024:	e0 d2 90 04 	l.or r6,r18,r18
    1028:	e0 7e f0 04 	l.or r3,r30,r30
    102c:	04 00 03 df 	l.jal 1fa8 <__udivdi3>
    1030:	e0 8e 70 04 	l.or r4,r14,r14
    1034:	e4 58 f0 00 	l.sfgtu r24,r30
    1038:	10 00 00 0a 	l.bf 1060 <_ntoa_long_long+0x138>
    103c:	9c 42 00 01 	l.addi r2,r2,1
    1040:	e4 38 f0 00 	l.sfne r24,r30
    1044:	10 00 00 05 	l.bf 1058 <_ntoa_long_long+0x130>
    1048:	e4 22 d0 00 	l.sfne r2,r26
    104c:	e4 52 70 00 	l.sfgtu r18,r14
    1050:	10 00 00 04 	l.bf 1060 <_ntoa_long_long+0x138>
    1054:	e4 22 d0 00 	l.sfne r2,r26
    1058:	10 00 00 1e 	l.bf 10d0 <_ntoa_long_long+0x1a8>
    105c:	9e d6 00 01 	l.addi r22,r22,1
    1060:	86 21 00 80 	l.lwz r17,128(r1)
    1064:	d4 01 88 0c 	l.sw 12(r1),r17
    1068:	86 21 00 7c 	l.lwz r17,124(r1)
    106c:	d4 01 88 08 	l.sw 8(r1),r17
    1070:	8e 21 00 73 	l.lbz r17,115(r1)
    1074:	d4 01 a0 10 	l.sw 16(r1),r20
    1078:	d4 01 90 04 	l.sw 4(r1),r18
    107c:	d8 01 88 03 	l.sb 3(r1),r17
    1080:	e1 02 10 04 	l.or r8,r2,r2
    1084:	9c e1 00 24 	l.addi r7,r1,36
    1088:	84 c1 00 20 	l.lwz r6,32(r1)
    108c:	84 a1 00 1c 	l.lwz r5,28(r1)
    1090:	84 81 00 18 	l.lwz r4,24(r1)
    1094:	07 ff fe 89 	l.jal ab8 <_ntoa_format>
    1098:	84 61 00 14 	l.lwz r3,20(r1)
    109c:	85 21 00 6c 	l.lwz r9,108(r1)
    10a0:	85 c1 00 44 	l.lwz r14,68(r1)
    10a4:	86 01 00 48 	l.lwz r16,72(r1)
    10a8:	86 41 00 4c 	l.lwz r18,76(r1)
    10ac:	86 81 00 50 	l.lwz r20,80(r1)
    10b0:	86 c1 00 54 	l.lwz r22,84(r1)
    10b4:	87 01 00 58 	l.lwz r24,88(r1)
    10b8:	87 41 00 5c 	l.lwz r26,92(r1)
    10bc:	87 81 00 60 	l.lwz r28,96(r1)
    10c0:	87 c1 00 64 	l.lwz r30,100(r1)
    10c4:	84 41 00 68 	l.lwz r2,104(r1)
    10c8:	44 00 48 00 	l.jr r9
    10cc:	9c 21 00 70 	l.addi r1,r1,112
    10d0:	e3 cb 58 04 	l.or r30,r11,r11
    10d4:	03 ff ff c3 	l.j fe0 <_ntoa_long_long+0xb8>
    10d8:	e1 cc 60 04 	l.or r14,r12,r12
    10dc:	e2 31 80 00 	l.add r17,r17,r16
    10e0:	03 ff ff cd 	l.j 1014 <_ntoa_long_long+0xec>
    10e4:	aa 60 00 18 	l.ori r19,r0,0x18

000010e8 <_out_char>:
    10e8:	aa 20 00 18 	l.ori r17,r0,0x18
    10ec:	e0 63 88 08 	l.sll r3,r3,r17
    10f0:	e0 63 88 88 	l.sra r3,r3,r17
    10f4:	1a 20 00 00 	l.movhi r17,0x0
    10f8:	e4 03 88 00 	l.sfeq r3,r17
    10fc:	10 00 00 04 	l.bf 110c <_out_char+0x24>
    1100:	15 00 00 00 	l.nop 0x0
    1104:	03 ff fe 37 	l.j 9e0 <_putchar>
    1108:	15 00 00 00 	l.nop 0x0
    110c:	44 00 48 00 	l.jr r9
    1110:	15 00 00 00 	l.nop 0x0

00001114 <_out_fct>:
    1114:	aa 20 00 18 	l.ori r17,r0,0x18
    1118:	e0 63 88 08 	l.sll r3,r3,r17
    111c:	e0 63 88 88 	l.sra r3,r3,r17
    1120:	1a 20 00 00 	l.movhi r17,0x0
    1124:	e4 03 88 00 	l.sfeq r3,r17
    1128:	10 00 00 05 	l.bf 113c <_out_fct+0x28>
    112c:	15 00 00 00 	l.nop 0x0
    1130:	86 24 00 00 	l.lwz r17,0(r4)
    1134:	44 00 88 00 	l.jr r17
    1138:	84 84 00 04 	l.lwz r4,4(r4)
    113c:	44 00 48 00 	l.jr r9
    1140:	15 00 00 00 	l.nop 0x0

00001144 <_vsnprintf>:
    1144:	9c 21 ff a4 	l.addi r1,r1,-92
    1148:	1a 20 00 00 	l.movhi r17,0x0
    114c:	d4 01 80 34 	l.sw 52(r1),r16
    1150:	d4 01 a0 3c 	l.sw 60(r1),r20
    1154:	d4 01 b0 40 	l.sw 64(r1),r22
    1158:	d4 01 10 54 	l.sw 84(r1),r2
    115c:	d4 01 70 30 	l.sw 48(r1),r14
    1160:	d4 01 90 38 	l.sw 56(r1),r18
    1164:	d4 01 c0 44 	l.sw 68(r1),r24
    1168:	d4 01 d0 48 	l.sw 72(r1),r26
    116c:	d4 01 e0 4c 	l.sw 76(r1),r28
    1170:	d4 01 f0 50 	l.sw 80(r1),r30
    1174:	d4 01 48 58 	l.sw 88(r1),r9
    1178:	e4 04 88 00 	l.sfeq r4,r17
    117c:	e2 c4 20 04 	l.or r22,r4,r4
    1180:	e2 85 28 04 	l.or r20,r5,r5
    1184:	e2 06 30 04 	l.or r16,r6,r6
    1188:	0c 00 01 e6 	l.bnf 1920 <_vsnprintf+0x7dc>
    118c:	e0 47 38 04 	l.or r2,r7,r7
    1190:	1a 40 00 00 	l.movhi r18,0x0
    1194:	9e 52 0a b0 	l.addi r18,r18,2736
    1198:	1b 00 00 12 	l.movhi r24,0x12
    119c:	aa 38 08 21 	l.ori r17,r24,0x821
    11a0:	1b 80 00 00 	l.movhi r28,0x0
    11a4:	00 00 02 1a 	l.j 1a0c <_vsnprintf+0x8c8>
    11a8:	d4 01 88 20 	l.sw 32(r1),r17
    11ac:	e4 03 88 00 	l.sfeq r3,r17
    11b0:	10 00 00 09 	l.bf 11d4 <_vsnprintf+0x90>
    11b4:	9e 10 00 01 	l.addi r16,r16,1
    11b8:	e0 bc e0 04 	l.or r5,r28,r28
    11bc:	9f 5c 00 01 	l.addi r26,r28,1
    11c0:	e0 d4 a0 04 	l.or r6,r20,r20
    11c4:	48 00 90 00 	l.jalr r18
    11c8:	e0 96 b0 04 	l.or r4,r22,r22
    11cc:	00 00 02 10 	l.j 1a0c <_vsnprintf+0x8c8>
    11d0:	e3 9a d0 04 	l.or r28,r26,r26
    11d4:	1a 20 00 00 	l.movhi r17,0x0
    11d8:	ab 20 00 2b 	l.ori r25,r0,0x2b
    11dc:	ab 60 00 30 	l.ori r27,r0,0x30
    11e0:	ab a0 00 20 	l.ori r29,r0,0x20
    11e4:	ab e0 00 23 	l.ori r31,r0,0x23
    11e8:	92 b0 00 00 	l.lbs r21,0(r16)
    11ec:	e4 15 c8 00 	l.sfeq r21,r25
    11f0:	8e 70 00 00 	l.lbz r19,0(r16)
    11f4:	10 00 00 1e 	l.bf 126c <_vsnprintf+0x128>
    11f8:	9e f0 00 01 	l.addi r23,r16,1
    11fc:	e5 55 c8 00 	l.sfgts r21,r25
    1200:	10 00 00 11 	l.bf 1244 <_vsnprintf+0x100>
    1204:	a9 a0 00 2d 	l.ori r13,r0,0x2d
    1208:	e4 15 e8 00 	l.sfeq r21,r29
    120c:	10 00 00 1a 	l.bf 1274 <_vsnprintf+0x130>
    1210:	e4 15 f8 00 	l.sfeq r21,r31
    1214:	10 00 00 1a 	l.bf 127c <_vsnprintf+0x138>
    1218:	aa a0 00 18 	l.ori r21,r0,0x18
    121c:	e2 73 a8 08 	l.sll r19,r19,r21
    1220:	e2 73 a8 88 	l.sra r19,r19,r21
    1224:	9e b3 ff d0 	l.addi r21,r19,-48
    1228:	a6 b5 00 ff 	l.andi r21,r21,0xff
    122c:	ab 20 00 09 	l.ori r25,r0,0x9
    1230:	e4 b5 c8 00 	l.sfleu r21,r25
    1234:	0c 00 00 30 	l.bnf 12f4 <_vsnprintf+0x1b0>
    1238:	aa a0 00 2a 	l.ori r21,r0,0x2a
    123c:	00 00 00 19 	l.j 12a0 <_vsnprintf+0x15c>
    1240:	1b c0 00 00 	l.movhi r30,0x0
    1244:	e4 15 68 00 	l.sfeq r21,r13
    1248:	10 00 00 07 	l.bf 1264 <_vsnprintf+0x120>
    124c:	e4 35 d8 00 	l.sfne r21,r27
    1250:	13 ff ff f3 	l.bf 121c <_vsnprintf+0xd8>
    1254:	aa a0 00 18 	l.ori r21,r0,0x18
    1258:	aa 31 00 01 	l.ori r17,r17,0x1
    125c:	03 ff ff e3 	l.j 11e8 <_vsnprintf+0xa4>
    1260:	e2 17 b8 04 	l.or r16,r23,r23
    1264:	03 ff ff fe 	l.j 125c <_vsnprintf+0x118>
    1268:	aa 31 00 02 	l.ori r17,r17,0x2
    126c:	03 ff ff fc 	l.j 125c <_vsnprintf+0x118>
    1270:	aa 31 00 04 	l.ori r17,r17,0x4
    1274:	03 ff ff fa 	l.j 125c <_vsnprintf+0x118>
    1278:	aa 31 00 08 	l.ori r17,r17,0x8
    127c:	03 ff ff f8 	l.j 125c <_vsnprintf+0x118>
    1280:	aa 31 00 10 	l.ori r17,r17,0x10
    1284:	aa 60 00 02 	l.ori r19,r0,0x2
    1288:	e2 be 98 08 	l.sll r21,r30,r19
    128c:	e2 75 f0 00 	l.add r19,r21,r30
    1290:	e2 73 98 00 	l.add r19,r19,r19
    1294:	9e 73 ff d0 	l.addi r19,r19,-48
    1298:	e3 d7 98 00 	l.add r30,r23,r19
    129c:	e2 1b d8 04 	l.or r16,r27,r27
    12a0:	92 f0 00 00 	l.lbs r23,0(r16)
    12a4:	9e b7 ff d0 	l.addi r21,r23,-48
    12a8:	a6 b5 00 ff 	l.andi r21,r21,0xff
    12ac:	e4 b5 c8 00 	l.sfleu r21,r25
    12b0:	13 ff ff f5 	l.bf 1284 <_vsnprintf+0x140>
    12b4:	9f 70 00 01 	l.addi r27,r16,1
    12b8:	92 b0 00 00 	l.lbs r21,0(r16)
    12bc:	aa 60 00 2e 	l.ori r19,r0,0x2e
    12c0:	e4 35 98 00 	l.sfne r21,r19
    12c4:	10 00 00 28 	l.bf 1364 <_vsnprintf+0x220>
    12c8:	19 c0 00 00 	l.movhi r14,0x0
    12cc:	93 30 00 01 	l.lbs r25,1(r16)
    12d0:	9e b9 ff d0 	l.addi r21,r25,-48
    12d4:	a6 b5 00 ff 	l.andi r21,r21,0xff
    12d8:	ab 60 00 09 	l.ori r27,r0,0x9
    12dc:	e4 b5 d8 00 	l.sfleu r21,r27
    12e0:	9e f0 00 01 	l.addi r23,r16,1
    12e4:	0c 00 00 48 	l.bnf 1404 <_vsnprintf+0x2c0>
    12e8:	aa 31 04 00 	l.ori r17,r17,0x400
    12ec:	00 00 00 18 	l.j 134c <_vsnprintf+0x208>
    12f0:	e2 17 b8 04 	l.or r16,r23,r23
    12f4:	e4 33 a8 00 	l.sfne r19,r21
    12f8:	13 ff ff f0 	l.bf 12b8 <_vsnprintf+0x174>
    12fc:	1b c0 00 00 	l.movhi r30,0x0
    1300:	1b 20 00 00 	l.movhi r25,0x0
    1304:	86 62 00 00 	l.lwz r19,0(r2)
    1308:	e5 73 c8 00 	l.sfges r19,r25
    130c:	10 00 00 07 	l.bf 1328 <_vsnprintf+0x1e4>
    1310:	9e a2 00 04 	l.addi r21,r2,4
    1314:	aa 31 00 02 	l.ori r17,r17,0x2
    1318:	e3 c0 98 02 	l.sub r30,r0,r19
    131c:	e2 17 b8 04 	l.or r16,r23,r23
    1320:	03 ff ff e6 	l.j 12b8 <_vsnprintf+0x174>
    1324:	e0 55 a8 04 	l.or r2,r21,r21
    1328:	03 ff ff fd 	l.j 131c <_vsnprintf+0x1d8>
    132c:	e3 d3 98 04 	l.or r30,r19,r19
    1330:	aa 60 00 02 	l.ori r19,r0,0x2
    1334:	e2 ee 98 08 	l.sll r23,r14,r19
    1338:	e2 b7 70 00 	l.add r21,r23,r14
    133c:	e2 b5 a8 00 	l.add r21,r21,r21
    1340:	9e b5 ff d0 	l.addi r21,r21,-48
    1344:	e1 d9 a8 00 	l.add r14,r25,r21
    1348:	e2 1d e8 04 	l.or r16,r29,r29
    134c:	93 30 00 00 	l.lbs r25,0(r16)
    1350:	9e f9 ff d0 	l.addi r23,r25,-48
    1354:	a6 f7 00 ff 	l.andi r23,r23,0xff
    1358:	e4 b7 d8 00 	l.sfleu r23,r27
    135c:	13 ff ff f5 	l.bf 1330 <_vsnprintf+0x1ec>
    1360:	9f b0 00 01 	l.addi r29,r16,1
    1364:	92 f0 00 00 	l.lbs r23,0(r16)
    1368:	ab 60 00 6c 	l.ori r27,r0,0x6c
    136c:	e4 17 d8 00 	l.sfeq r23,r27
    1370:	10 00 00 3b 	l.bf 145c <_vsnprintf+0x318>
    1374:	9f 30 00 01 	l.addi r25,r16,1
    1378:	e5 57 d8 00 	l.sfgts r23,r27
    137c:	10 00 00 32 	l.bf 1444 <_vsnprintf+0x300>
    1380:	aa 60 00 68 	l.ori r19,r0,0x68
    1384:	e4 17 98 00 	l.sfeq r23,r19
    1388:	10 00 00 3c 	l.bf 1478 <_vsnprintf+0x334>
    138c:	aa 60 00 6a 	l.ori r19,r0,0x6a
    1390:	e4 17 98 00 	l.sfeq r23,r19
    1394:	10 00 00 41 	l.bf 1498 <_vsnprintf+0x354>
    1398:	15 00 00 00 	l.nop 0x0
    139c:	e3 30 80 04 	l.or r25,r16,r16
    13a0:	90 79 00 00 	l.lbs r3,0(r25)
    13a4:	ab 60 00 78 	l.ori r27,r0,0x78
    13a8:	e5 43 d8 00 	l.sfgts r3,r27
    13ac:	13 ff ff 83 	l.bf 11b8 <_vsnprintf+0x74>
    13b0:	9e 19 00 01 	l.addi r16,r25,1
    13b4:	aa e0 00 63 	l.ori r23,r0,0x63
    13b8:	e5 43 b8 00 	l.sfgts r3,r23
    13bc:	10 00 00 39 	l.bf 14a0 <_vsnprintf+0x35c>
    13c0:	86 61 00 20 	l.lwz r19,32(r1)
    13c4:	aa 60 00 62 	l.ori r19,r0,0x62
    13c8:	e4 03 98 00 	l.sfeq r3,r19
    13cc:	10 00 01 57 	l.bf 1928 <_vsnprintf+0x7e4>
    13d0:	e4 03 b8 00 	l.sfeq r3,r23
    13d4:	10 00 00 ac 	l.bf 1684 <_vsnprintf+0x540>
    13d8:	aa 60 00 25 	l.ori r19,r0,0x25
    13dc:	e4 03 98 00 	l.sfeq r3,r19
    13e0:	13 ff ff 76 	l.bf 11b8 <_vsnprintf+0x74>
    13e4:	aa 60 00 58 	l.ori r19,r0,0x58
    13e8:	e4 03 98 00 	l.sfeq r3,r19
    13ec:	0f ff ff 73 	l.bnf 11b8 <_vsnprintf+0x74>
    13f0:	aa 31 00 20 	l.ori r17,r17,0x20
    13f4:	aa e0 00 10 	l.ori r23,r0,0x10
    13f8:	af 20 ff f3 	l.xori r25,r0,-13
    13fc:	00 00 01 55 	l.j 1950 <_vsnprintf+0x80c>
    1400:	e2 31 c8 03 	l.and r17,r17,r25
    1404:	aa 60 00 2a 	l.ori r19,r0,0x2a
    1408:	e4 39 98 00 	l.sfne r25,r19
    140c:	10 00 00 0b 	l.bf 1438 <_vsnprintf+0x2f4>
    1410:	15 00 00 00 	l.nop 0x0
    1414:	1a 60 00 00 	l.movhi r19,0x0
    1418:	86 a2 00 00 	l.lwz r21,0(r2)
    141c:	e5 75 98 00 	l.sfges r21,r19
    1420:	10 00 00 03 	l.bf 142c <_vsnprintf+0x2e8>
    1424:	e1 d5 a8 04 	l.or r14,r21,r21
    1428:	19 c0 00 00 	l.movhi r14,0x0
    142c:	9e 10 00 02 	l.addi r16,r16,2
    1430:	03 ff ff cd 	l.j 1364 <_vsnprintf+0x220>
    1434:	9c 42 00 04 	l.addi r2,r2,4
    1438:	e2 17 b8 04 	l.or r16,r23,r23
    143c:	03 ff ff ca 	l.j 1364 <_vsnprintf+0x220>
    1440:	19 c0 00 00 	l.movhi r14,0x0
    1444:	aa 60 00 7a 	l.ori r19,r0,0x7a
    1448:	e4 17 98 00 	l.sfeq r23,r19
    144c:	0f ff ff d4 	l.bnf 139c <_vsnprintf+0x258>
    1450:	15 00 00 00 	l.nop 0x0
    1454:	03 ff ff d3 	l.j 13a0 <_vsnprintf+0x25c>
    1458:	aa 31 01 00 	l.ori r17,r17,0x100
    145c:	93 70 00 01 	l.lbs r27,1(r16)
    1460:	e4 1b b8 00 	l.sfeq r27,r23
    1464:	0f ff ff fc 	l.bnf 1454 <_vsnprintf+0x310>
    1468:	15 00 00 00 	l.nop 0x0
    146c:	aa 31 03 00 	l.ori r17,r17,0x300
    1470:	03 ff ff cc 	l.j 13a0 <_vsnprintf+0x25c>
    1474:	9f 30 00 02 	l.addi r25,r16,2
    1478:	93 70 00 01 	l.lbs r27,1(r16)
    147c:	e4 1b b8 00 	l.sfeq r27,r23
    1480:	10 00 00 04 	l.bf 1490 <_vsnprintf+0x34c>
    1484:	15 00 00 00 	l.nop 0x0
    1488:	03 ff ff c6 	l.j 13a0 <_vsnprintf+0x25c>
    148c:	aa 31 00 80 	l.ori r17,r17,0x80
    1490:	03 ff ff f8 	l.j 1470 <_vsnprintf+0x32c>
    1494:	aa 31 00 c0 	l.ori r17,r17,0xc0
    1498:	03 ff ff c2 	l.j 13a0 <_vsnprintf+0x25c>
    149c:	aa 31 02 00 	l.ori r17,r17,0x200
    14a0:	9f 23 ff 9c 	l.addi r25,r3,-100
    14a4:	a7 39 00 ff 	l.andi r25,r25,0xff
    14a8:	aa e0 00 01 	l.ori r23,r0,0x1
    14ac:	e2 f7 c8 08 	l.sll r23,r23,r25
    14b0:	e2 f7 98 03 	l.and r23,r23,r19
    14b4:	1a 60 00 00 	l.movhi r19,0x0
    14b8:	e4 37 98 00 	l.sfne r23,r19
    14bc:	10 00 00 11 	l.bf 1500 <_vsnprintf+0x3bc>
    14c0:	aa 60 00 73 	l.ori r19,r0,0x73
    14c4:	e4 03 98 00 	l.sfeq r3,r19
    14c8:	10 00 00 a9 	l.bf 176c <_vsnprintf+0x628>
    14cc:	aa 60 00 70 	l.ori r19,r0,0x70
    14d0:	e4 03 98 00 	l.sfeq r3,r19
    14d4:	0f ff ff 3a 	l.bnf 11bc <_vsnprintf+0x78>
    14d8:	e0 bc e0 04 	l.or r5,r28,r28
    14dc:	aa 31 00 21 	l.ori r17,r17,0x21
    14e0:	d4 01 88 0c 	l.sw 12(r1),r17
    14e4:	aa 20 00 08 	l.ori r17,r0,0x8
    14e8:	d4 01 88 08 	l.sw 8(r1),r17
    14ec:	aa 20 00 10 	l.ori r17,r0,0x10
    14f0:	9f 42 00 04 	l.addi r26,r2,4
    14f4:	d4 01 70 04 	l.sw 4(r1),r14
    14f8:	00 00 00 4d 	l.j 162c <_vsnprintf+0x4e8>
    14fc:	d4 01 88 00 	l.sw 0(r1),r17
    1500:	aa e0 00 6f 	l.ori r23,r0,0x6f
    1504:	e4 03 b8 00 	l.sfeq r3,r23
    1508:	0c 00 01 0a 	l.bnf 1930 <_vsnprintf+0x7ec>
    150c:	e5 43 b8 00 	l.sfgts r3,r23
    1510:	03 ff ff ba 	l.j 13f8 <_vsnprintf+0x2b4>
    1514:	aa e0 00 08 	l.ori r23,r0,0x8
    1518:	10 00 00 05 	l.bf 152c <_vsnprintf+0x3e8>
    151c:	aa e0 00 10 	l.ori r23,r0,0x10
    1520:	ae e0 ff ef 	l.xori r23,r0,-17
    1524:	e2 31 b8 03 	l.and r17,r17,r23
    1528:	aa e0 00 0a 	l.ori r23,r0,0xa
    152c:	aa 60 00 64 	l.ori r19,r0,0x64
    1530:	e4 03 98 00 	l.sfeq r3,r19
    1534:	10 00 01 07 	l.bf 1950 <_vsnprintf+0x80c>
    1538:	af 20 ff f3 	l.xori r25,r0,-13
    153c:	00 00 01 05 	l.j 1950 <_vsnprintf+0x80c>
    1540:	e2 31 c8 03 	l.and r17,r17,r25
    1544:	1a 60 00 00 	l.movhi r19,0x0
    1548:	e4 19 98 00 	l.sfeq r25,r19
    154c:	10 00 00 15 	l.bf 15a0 <_vsnprintf+0x45c>
    1550:	9f 42 00 04 	l.addi r26,r2,4
    1554:	84 e2 00 00 	l.lwz r7,0(r2)
    1558:	aa 60 00 1f 	l.ori r19,r0,0x1f
    155c:	e1 07 98 48 	l.srl r8,r7,r19
    1560:	1a 60 00 00 	l.movhi r19,0x0
    1564:	e5 67 98 00 	l.sfges r7,r19
    1568:	10 00 00 03 	l.bf 1574 <_vsnprintf+0x430>
    156c:	15 00 00 00 	l.nop 0x0
    1570:	e0 e0 38 02 	l.sub r7,r0,r7
    1574:	d4 01 88 0c 	l.sw 12(r1),r17
    1578:	d4 01 f0 08 	l.sw 8(r1),r30
    157c:	d4 01 70 04 	l.sw 4(r1),r14
    1580:	d4 01 b8 00 	l.sw 0(r1),r23
    1584:	e0 d4 a0 04 	l.or r6,r20,r20
    1588:	e0 bc e0 04 	l.or r5,r28,r28
    158c:	e0 96 b0 04 	l.or r4,r22,r22
    1590:	07 ff fe 26 	l.jal e28 <_ntoa_long>
    1594:	e0 72 90 04 	l.or r3,r18,r18
    1598:	00 00 01 1c 	l.j 1a08 <_vsnprintf+0x8c4>
    159c:	e3 8b 58 04 	l.or r28,r11,r11
    15a0:	a7 31 00 40 	l.andi r25,r17,0x40
    15a4:	e4 19 98 00 	l.sfeq r25,r19
    15a8:	84 e2 00 00 	l.lwz r7,0(r2)
    15ac:	0c 00 00 08 	l.bnf 15cc <_vsnprintf+0x488>
    15b0:	aa 60 00 18 	l.ori r19,r0,0x18
    15b4:	a7 31 00 80 	l.andi r25,r17,0x80
    15b8:	1a 60 00 00 	l.movhi r19,0x0
    15bc:	e4 19 98 00 	l.sfeq r25,r19
    15c0:	13 ff ff e7 	l.bf 155c <_vsnprintf+0x418>
    15c4:	aa 60 00 1f 	l.ori r19,r0,0x1f
    15c8:	aa 60 00 10 	l.ori r19,r0,0x10
    15cc:	e0 e7 98 08 	l.sll r7,r7,r19
    15d0:	03 ff ff e2 	l.j 1558 <_vsnprintf+0x414>
    15d4:	e0 e7 98 88 	l.sra r7,r7,r19
    15d8:	e4 19 98 00 	l.sfeq r25,r19
    15dc:	10 00 00 0c 	l.bf 160c <_vsnprintf+0x4c8>
    15e0:	a7 31 01 00 	l.andi r25,r17,0x100
    15e4:	84 e2 00 00 	l.lwz r7,0(r2)
    15e8:	85 02 00 04 	l.lwz r8,4(r2)
    15ec:	9f 42 00 08 	l.addi r26,r2,8
    15f0:	d4 01 88 14 	l.sw 20(r1),r17
    15f4:	d4 01 f0 10 	l.sw 16(r1),r30
    15f8:	d4 01 70 0c 	l.sw 12(r1),r14
    15fc:	d4 01 b8 08 	l.sw 8(r1),r23
    1600:	d4 01 00 04 	l.sw 4(r1),r0
    1604:	00 00 00 fb 	l.j 19f0 <_vsnprintf+0x8ac>
    1608:	d8 01 00 03 	l.sb 3(r1),r0
    160c:	1a 60 00 00 	l.movhi r19,0x0
    1610:	e4 19 98 00 	l.sfeq r25,r19
    1614:	10 00 00 09 	l.bf 1638 <_vsnprintf+0x4f4>
    1618:	9f 42 00 04 	l.addi r26,r2,4
    161c:	d4 01 88 0c 	l.sw 12(r1),r17
    1620:	d4 01 f0 08 	l.sw 8(r1),r30
    1624:	d4 01 70 04 	l.sw 4(r1),r14
    1628:	d4 01 b8 00 	l.sw 0(r1),r23
    162c:	19 00 00 00 	l.movhi r8,0x0
    1630:	03 ff ff d5 	l.j 1584 <_vsnprintf+0x440>
    1634:	84 e2 00 00 	l.lwz r7,0(r2)
    1638:	a7 31 00 40 	l.andi r25,r17,0x40
    163c:	1a 60 00 00 	l.movhi r19,0x0
    1640:	e4 19 98 00 	l.sfeq r25,r19
    1644:	10 00 00 09 	l.bf 1668 <_vsnprintf+0x524>
    1648:	84 e2 00 00 	l.lwz r7,0(r2)
    164c:	a4 e7 00 ff 	l.andi r7,r7,0xff
    1650:	d4 01 88 0c 	l.sw 12(r1),r17
    1654:	d4 01 f0 08 	l.sw 8(r1),r30
    1658:	d4 01 70 04 	l.sw 4(r1),r14
    165c:	d4 01 b8 00 	l.sw 0(r1),r23
    1660:	03 ff ff c9 	l.j 1584 <_vsnprintf+0x440>
    1664:	19 00 00 00 	l.movhi r8,0x0
    1668:	a7 31 00 80 	l.andi r25,r17,0x80
    166c:	1a 60 00 00 	l.movhi r19,0x0
    1670:	e4 19 98 00 	l.sfeq r25,r19
    1674:	13 ff ff f7 	l.bf 1650 <_vsnprintf+0x50c>
    1678:	15 00 00 00 	l.nop 0x0
    167c:	03 ff ff f5 	l.j 1650 <_vsnprintf+0x50c>
    1680:	a4 e7 ff ff 	l.andi r7,r7,0xffff
    1684:	a7 51 00 02 	l.andi r26,r17,0x2
    1688:	1a 20 00 00 	l.movhi r17,0x0
    168c:	e4 1a 88 00 	l.sfeq r26,r17
    1690:	0c 00 00 17 	l.bnf 16ec <_vsnprintf+0x5a8>
    1694:	a9 c0 00 01 	l.ori r14,r0,0x1
    1698:	19 c0 00 00 	l.movhi r14,0x0
    169c:	00 00 00 05 	l.j 16b0 <_vsnprintf+0x56c>
    16a0:	ab 00 00 20 	l.ori r24,r0,0x20
    16a4:	e0 96 b0 04 	l.or r4,r22,r22
    16a8:	48 00 90 00 	l.jalr r18
    16ac:	e0 78 c0 04 	l.or r3,r24,r24
    16b0:	e0 bc 70 00 	l.add r5,r28,r14
    16b4:	9d ce 00 01 	l.addi r14,r14,1
    16b8:	e4 5e 70 00 	l.sfgtu r30,r14
    16bc:	13 ff ff fa 	l.bf 16a4 <_vsnprintf+0x560>
    16c0:	e0 d4 a0 04 	l.or r6,r20,r20
    16c4:	1a 60 00 00 	l.movhi r19,0x0
    16c8:	e4 3e 98 00 	l.sfne r30,r19
    16cc:	10 00 00 03 	l.bf 16d8 <_vsnprintf+0x594>
    16d0:	9e 3e ff ff 	l.addi r17,r30,-1
    16d4:	1a 20 00 00 	l.movhi r17,0x0
    16d8:	e3 9c 88 00 	l.add r28,r28,r17
    16dc:	9e 3e 00 01 	l.addi r17,r30,1
    16e0:	10 00 00 03 	l.bf 16ec <_vsnprintf+0x5a8>
    16e4:	e1 d1 88 04 	l.or r14,r17,r17
    16e8:	a9 c0 00 02 	l.ori r14,r0,0x2
    16ec:	9e 22 00 04 	l.addi r17,r2,4
    16f0:	d4 01 88 18 	l.sw 24(r1),r17
    16f4:	e0 d4 a0 04 	l.or r6,r20,r20
    16f8:	e0 bc e0 04 	l.or r5,r28,r28
    16fc:	e0 96 b0 04 	l.or r4,r22,r22
    1700:	48 00 90 00 	l.jalr r18
    1704:	8c 62 00 03 	l.lbz r3,3(r2)
    1708:	1a 20 00 00 	l.movhi r17,0x0
    170c:	e4 3a 88 00 	l.sfne r26,r17
    1710:	0c 00 00 14 	l.bnf 1760 <_vsnprintf+0x61c>
    1714:	9f 1c 00 01 	l.addi r24,r28,1
    1718:	e3 4e 70 04 	l.or r26,r14,r14
    171c:	e0 b8 c0 04 	l.or r5,r24,r24
    1720:	00 00 00 08 	l.j 1740 <_vsnprintf+0x5fc>
    1724:	a8 40 00 20 	l.ori r2,r0,0x20
    1728:	e0 96 b0 04 	l.or r4,r22,r22
    172c:	e0 62 10 04 	l.or r3,r2,r2
    1730:	48 00 90 00 	l.jalr r18
    1734:	9f 85 00 01 	l.addi r28,r5,1
    1738:	9f 5a 00 01 	l.addi r26,r26,1
    173c:	e0 bc e0 04 	l.or r5,r28,r28
    1740:	e4 9a f0 00 	l.sfltu r26,r30
    1744:	13 ff ff f9 	l.bf 1728 <_vsnprintf+0x5e4>
    1748:	e0 d4 a0 04 	l.or r6,r20,r20
    174c:	e4 7e 70 00 	l.sfgeu r30,r14
    1750:	10 00 00 03 	l.bf 175c <_vsnprintf+0x618>
    1754:	e2 fe 70 02 	l.sub r23,r30,r14
    1758:	1a e0 00 00 	l.movhi r23,0x0
    175c:	e3 18 b8 00 	l.add r24,r24,r23
    1760:	e3 98 c0 04 	l.or r28,r24,r24
    1764:	00 00 00 aa 	l.j 1a0c <_vsnprintf+0x8c8>
    1768:	84 41 00 18 	l.lwz r2,24(r1)
    176c:	9e 62 00 04 	l.addi r19,r2,4
    1770:	d4 01 98 1c 	l.sw 28(r1),r19
    1774:	1a 60 00 00 	l.movhi r19,0x0
    1778:	e4 0e 98 00 	l.sfeq r14,r19
    177c:	ae e0 ff ff 	l.xori r23,r0,-1
    1780:	10 00 00 03 	l.bf 178c <_vsnprintf+0x648>
    1784:	87 42 00 00 	l.lwz r26,0(r2)
    1788:	e2 ee 70 04 	l.or r23,r14,r14
    178c:	e3 7a b8 00 	l.add r27,r26,r23
    1790:	e2 fa d0 04 	l.or r23,r26,r26
    1794:	93 b7 00 00 	l.lbs r29,0(r23)
    1798:	1a 60 00 00 	l.movhi r19,0x0
    179c:	e4 1d 98 00 	l.sfeq r29,r19
    17a0:	10 00 00 04 	l.bf 17b0 <_vsnprintf+0x66c>
    17a4:	e4 3b b8 00 	l.sfne r27,r23
    17a8:	10 00 00 15 	l.bf 17fc <_vsnprintf+0x6b8>
    17ac:	15 00 00 00 	l.nop 0x0
    17b0:	a6 71 04 00 	l.andi r19,r17,0x400
    17b4:	1a a0 00 00 	l.movhi r21,0x0
    17b8:	d4 01 98 18 	l.sw 24(r1),r19
    17bc:	e4 13 a8 00 	l.sfeq r19,r21
    17c0:	10 00 00 06 	l.bf 17d8 <_vsnprintf+0x694>
    17c4:	e3 17 d0 02 	l.sub r24,r23,r26
    17c8:	e4 b8 70 00 	l.sfleu r24,r14
    17cc:	10 00 00 04 	l.bf 17dc <_vsnprintf+0x698>
    17d0:	a4 51 00 02 	l.andi r2,r17,0x2
    17d4:	e3 0e 70 04 	l.or r24,r14,r14
    17d8:	a4 51 00 02 	l.andi r2,r17,0x2
    17dc:	1a 20 00 00 	l.movhi r17,0x0
    17e0:	e4 02 88 00 	l.sfeq r2,r17
    17e4:	0c 00 00 28 	l.bnf 1884 <_vsnprintf+0x740>
    17e8:	e2 3c e0 04 	l.or r17,r28,r28
    17ec:	e0 bc e0 04 	l.or r5,r28,r28
    17f0:	e3 78 e0 02 	l.sub r27,r24,r28
    17f4:	00 00 00 0e 	l.j 182c <_vsnprintf+0x6e8>
    17f8:	a8 60 00 20 	l.ori r3,r0,0x20
    17fc:	03 ff ff e6 	l.j 1794 <_vsnprintf+0x650>
    1800:	9e f7 00 01 	l.addi r23,r23,1
    1804:	9e 25 00 01 	l.addi r17,r5,1
    1808:	d4 01 d8 2c 	l.sw 44(r1),r27
    180c:	d4 01 88 28 	l.sw 40(r1),r17
    1810:	d4 01 18 24 	l.sw 36(r1),r3
    1814:	48 00 90 00 	l.jalr r18
    1818:	e0 96 b0 04 	l.or r4,r22,r22
    181c:	86 21 00 28 	l.lwz r17,40(r1)
    1820:	e0 b1 88 04 	l.or r5,r17,r17
    1824:	84 61 00 24 	l.lwz r3,36(r1)
    1828:	87 61 00 2c 	l.lwz r27,44(r1)
    182c:	e2 3b 28 00 	l.add r17,r27,r5
    1830:	e4 91 f0 00 	l.sfltu r17,r30
    1834:	13 ff ff f4 	l.bf 1804 <_vsnprintf+0x6c0>
    1838:	e0 d4 a0 04 	l.or r6,r20,r20
    183c:	e4 7e c0 00 	l.sfgeu r30,r24
    1840:	10 00 00 03 	l.bf 184c <_vsnprintf+0x708>
    1844:	e2 3e c0 02 	l.sub r17,r30,r24
    1848:	1a 20 00 00 	l.movhi r17,0x0
    184c:	9e f8 00 01 	l.addi r23,r24,1
    1850:	e3 9c 88 00 	l.add r28,r28,r17
    1854:	e3 11 b8 00 	l.add r24,r17,r23
    1858:	00 00 00 0b 	l.j 1884 <_vsnprintf+0x740>
    185c:	e2 3c e0 04 	l.or r17,r28,r28
    1860:	e1 db d8 04 	l.or r14,r27,r27
    1864:	9f 71 00 01 	l.addi r27,r17,1
    1868:	d4 01 d8 24 	l.sw 36(r1),r27
    186c:	e0 b1 88 04 	l.or r5,r17,r17
    1870:	e0 d4 a0 04 	l.or r6,r20,r20
    1874:	48 00 90 00 	l.jalr r18
    1878:	e0 96 b0 04 	l.or r4,r22,r22
    187c:	87 61 00 24 	l.lwz r27,36(r1)
    1880:	e2 3b d8 04 	l.or r17,r27,r27
    1884:	e3 71 e0 02 	l.sub r27,r17,r28
    1888:	e3 7a d8 00 	l.add r27,r26,r27
    188c:	90 7b 00 00 	l.lbs r3,0(r27)
    1890:	1a 60 00 00 	l.movhi r19,0x0
    1894:	e4 03 98 00 	l.sfeq r3,r19
    1898:	10 00 00 08 	l.bf 18b8 <_vsnprintf+0x774>
    189c:	86 a1 00 18 	l.lwz r21,24(r1)
    18a0:	e4 15 98 00 	l.sfeq r21,r19
    18a4:	13 ff ff f0 	l.bf 1864 <_vsnprintf+0x720>
    18a8:	e4 2e 98 00 	l.sfne r14,r19
    18ac:	13 ff ff ed 	l.bf 1860 <_vsnprintf+0x71c>
    18b0:	9f 6e ff ff 	l.addi r27,r14,-1
    18b4:	1a 60 00 00 	l.movhi r19,0x0
    18b8:	e4 22 98 00 	l.sfne r2,r19
    18bc:	0c 00 00 16 	l.bnf 1914 <_vsnprintf+0x7d0>
    18c0:	15 00 00 00 	l.nop 0x0
    18c4:	e0 b1 88 04 	l.or r5,r17,r17
    18c8:	e0 58 88 02 	l.sub r2,r24,r17
    18cc:	00 00 00 09 	l.j 18f0 <_vsnprintf+0x7ac>
    18d0:	ab 40 00 20 	l.ori r26,r0,0x20
    18d4:	d4 01 88 18 	l.sw 24(r1),r17
    18d8:	e0 96 b0 04 	l.or r4,r22,r22
    18dc:	e0 7a d0 04 	l.or r3,r26,r26
    18e0:	48 00 90 00 	l.jalr r18
    18e4:	9f 85 00 01 	l.addi r28,r5,1
    18e8:	e0 bc e0 04 	l.or r5,r28,r28
    18ec:	86 21 00 18 	l.lwz r17,24(r1)
    18f0:	e2 a5 10 00 	l.add r21,r5,r2
    18f4:	e4 5e a8 00 	l.sfgtu r30,r21
    18f8:	13 ff ff f7 	l.bf 18d4 <_vsnprintf+0x790>
    18fc:	e0 d4 a0 04 	l.or r6,r20,r20
    1900:	e4 7e c0 00 	l.sfgeu r30,r24
    1904:	10 00 00 03 	l.bf 1910 <_vsnprintf+0x7cc>
    1908:	e2 be c0 02 	l.sub r21,r30,r24
    190c:	1a a0 00 00 	l.movhi r21,0x0
    1910:	e2 31 a8 00 	l.add r17,r17,r21
    1914:	e3 91 88 04 	l.or r28,r17,r17
    1918:	00 00 00 3d 	l.j 1a0c <_vsnprintf+0x8c8>
    191c:	84 41 00 1c 	l.lwz r2,28(r1)
    1920:	03 ff fe 1e 	l.j 1198 <_vsnprintf+0x54>
    1924:	e2 43 18 04 	l.or r18,r3,r3
    1928:	03 ff fe b4 	l.j 13f8 <_vsnprintf+0x2b4>
    192c:	aa e0 00 02 	l.ori r23,r0,0x2
    1930:	13 ff fe fa 	l.bf 1518 <_vsnprintf+0x3d4>
    1934:	e4 03 d8 00 	l.sfeq r3,r27
    1938:	aa 60 00 69 	l.ori r19,r0,0x69
    193c:	ae e0 ff ef 	l.xori r23,r0,-17
    1940:	e4 23 98 00 	l.sfne r3,r19
    1944:	e2 31 b8 03 	l.and r17,r17,r23
    1948:	13 ff fe f9 	l.bf 152c <_vsnprintf+0x3e8>
    194c:	aa e0 00 0a 	l.ori r23,r0,0xa
    1950:	a7 31 04 00 	l.andi r25,r17,0x400
    1954:	1a 60 00 00 	l.movhi r19,0x0
    1958:	e4 19 98 00 	l.sfeq r25,r19
    195c:	10 00 00 04 	l.bf 196c <_vsnprintf+0x828>
    1960:	aa 60 00 69 	l.ori r19,r0,0x69
    1964:	af 20 ff fe 	l.xori r25,r0,-2
    1968:	e2 31 c8 03 	l.and r17,r17,r25
    196c:	e4 03 98 00 	l.sfeq r3,r19
    1970:	10 00 00 06 	l.bf 1988 <_vsnprintf+0x844>
    1974:	a7 31 02 00 	l.andi r25,r17,0x200
    1978:	aa 60 00 64 	l.ori r19,r0,0x64
    197c:	e4 23 98 00 	l.sfne r3,r19
    1980:	13 ff ff 16 	l.bf 15d8 <_vsnprintf+0x494>
    1984:	1a 60 00 00 	l.movhi r19,0x0
    1988:	1a 60 00 00 	l.movhi r19,0x0
    198c:	e4 19 98 00 	l.sfeq r25,r19
    1990:	13 ff fe ed 	l.bf 1544 <_vsnprintf+0x400>
    1994:	a7 31 01 00 	l.andi r25,r17,0x100
    1998:	87 22 00 00 	l.lwz r25,0(r2)
    199c:	e5 79 98 00 	l.sfges r25,r19
    19a0:	9f 42 00 08 	l.addi r26,r2,8
    19a4:	e0 f9 c8 04 	l.or r7,r25,r25
    19a8:	10 00 00 0a 	l.bf 19d0 <_vsnprintf+0x88c>
    19ac:	85 02 00 04 	l.lwz r8,4(r2)
    19b0:	e4 28 98 00 	l.sfne r8,r19
    19b4:	e3 60 40 02 	l.sub r27,r0,r8
    19b8:	10 00 00 03 	l.bf 19c4 <_vsnprintf+0x880>
    19bc:	ab a0 00 01 	l.ori r29,r0,0x1
    19c0:	1b a0 00 00 	l.movhi r29,0x0
    19c4:	e0 e0 c8 02 	l.sub r7,r0,r25
    19c8:	e0 e7 e8 02 	l.sub r7,r7,r29
    19cc:	e1 1b d8 04 	l.or r8,r27,r27
    19d0:	d4 01 88 14 	l.sw 20(r1),r17
    19d4:	aa 20 00 1f 	l.ori r17,r0,0x1f
    19d8:	e3 39 88 48 	l.srl r25,r25,r17
    19dc:	d4 01 f0 10 	l.sw 16(r1),r30
    19e0:	d4 01 70 0c 	l.sw 12(r1),r14
    19e4:	d4 01 b8 08 	l.sw 8(r1),r23
    19e8:	d4 01 00 04 	l.sw 4(r1),r0
    19ec:	d8 01 c8 03 	l.sb 3(r1),r25
    19f0:	e0 d4 a0 04 	l.or r6,r20,r20
    19f4:	e0 bc e0 04 	l.or r5,r28,r28
    19f8:	e0 96 b0 04 	l.or r4,r22,r22
    19fc:	07 ff fd 4b 	l.jal f28 <_ntoa_long_long>
    1a00:	e0 72 90 04 	l.or r3,r18,r18
    1a04:	e3 8b 58 04 	l.or r28,r11,r11
    1a08:	e0 5a d0 04 	l.or r2,r26,r26
    1a0c:	90 70 00 00 	l.lbs r3,0(r16)
    1a10:	1a 20 00 00 	l.movhi r17,0x0
    1a14:	e4 23 88 00 	l.sfne r3,r17
    1a18:	13 ff fd e5 	l.bf 11ac <_vsnprintf+0x68>
    1a1c:	aa 20 00 25 	l.ori r17,r0,0x25
    1a20:	e4 9c a0 00 	l.sfltu r28,r20
    1a24:	10 00 00 03 	l.bf 1a30 <_vsnprintf+0x8ec>
    1a28:	e0 bc e0 04 	l.or r5,r28,r28
    1a2c:	9c b4 ff ff 	l.addi r5,r20,-1
    1a30:	e0 d4 a0 04 	l.or r6,r20,r20
    1a34:	e0 96 b0 04 	l.or r4,r22,r22
    1a38:	48 00 90 00 	l.jalr r18
    1a3c:	18 60 00 00 	l.movhi r3,0x0
    1a40:	e1 7c e0 04 	l.or r11,r28,r28
    1a44:	85 c1 00 30 	l.lwz r14,48(r1)
    1a48:	86 01 00 34 	l.lwz r16,52(r1)
    1a4c:	86 41 00 38 	l.lwz r18,56(r1)
    1a50:	86 81 00 3c 	l.lwz r20,60(r1)
    1a54:	86 c1 00 40 	l.lwz r22,64(r1)
    1a58:	87 01 00 44 	l.lwz r24,68(r1)
    1a5c:	87 41 00 48 	l.lwz r26,72(r1)
    1a60:	87 81 00 4c 	l.lwz r28,76(r1)
    1a64:	87 c1 00 50 	l.lwz r30,80(r1)
    1a68:	84 41 00 54 	l.lwz r2,84(r1)
    1a6c:	85 21 00 58 	l.lwz r9,88(r1)
    1a70:	44 00 48 00 	l.jr r9
    1a74:	9c 21 00 5c 	l.addi r1,r1,92

00001a78 <printf_>:
    1a78:	9c 21 ff f8 	l.addi r1,r1,-8
    1a7c:	e0 c3 18 04 	l.or r6,r3,r3
    1a80:	18 60 00 00 	l.movhi r3,0x0
    1a84:	9c e1 00 08 	l.addi r7,r1,8
    1a88:	9c 81 00 03 	l.addi r4,r1,3
    1a8c:	ac a0 ff ff 	l.xori r5,r0,-1
    1a90:	d4 01 48 04 	l.sw 4(r1),r9
    1a94:	07 ff fd ac 	l.jal 1144 <_vsnprintf>
    1a98:	9c 63 10 e8 	l.addi r3,r3,4328
    1a9c:	85 21 00 04 	l.lwz r9,4(r1)
    1aa0:	44 00 48 00 	l.jr r9
    1aa4:	9c 21 00 08 	l.addi r1,r1,8

00001aa8 <sprintf_>:
    1aa8:	9c 21 ff fc 	l.addi r1,r1,-4
    1aac:	e0 c4 20 04 	l.or r6,r4,r4
    1ab0:	e0 83 18 04 	l.or r4,r3,r3
    1ab4:	18 60 00 00 	l.movhi r3,0x0
    1ab8:	9c e1 00 04 	l.addi r7,r1,4
    1abc:	ac a0 ff ff 	l.xori r5,r0,-1
    1ac0:	d4 01 48 00 	l.sw 0(r1),r9
    1ac4:	07 ff fd a0 	l.jal 1144 <_vsnprintf>
    1ac8:	9c 63 0a 8c 	l.addi r3,r3,2700
    1acc:	85 21 00 00 	l.lwz r9,0(r1)
    1ad0:	44 00 48 00 	l.jr r9
    1ad4:	9c 21 00 04 	l.addi r1,r1,4

00001ad8 <snprintf_>:
    1ad8:	9c 21 ff fc 	l.addi r1,r1,-4
    1adc:	e0 c5 28 04 	l.or r6,r5,r5
    1ae0:	e0 a4 20 04 	l.or r5,r4,r4
    1ae4:	e0 83 18 04 	l.or r4,r3,r3
    1ae8:	18 60 00 00 	l.movhi r3,0x0
    1aec:	9c e1 00 04 	l.addi r7,r1,4
    1af0:	d4 01 48 00 	l.sw 0(r1),r9
    1af4:	07 ff fd 94 	l.jal 1144 <_vsnprintf>
    1af8:	9c 63 0a 8c 	l.addi r3,r3,2700
    1afc:	85 21 00 00 	l.lwz r9,0(r1)
    1b00:	44 00 48 00 	l.jr r9
    1b04:	9c 21 00 04 	l.addi r1,r1,4

00001b08 <vprintf_>:
    1b08:	9c 21 ff f8 	l.addi r1,r1,-8
    1b0c:	e0 c3 18 04 	l.or r6,r3,r3
    1b10:	18 60 00 00 	l.movhi r3,0x0
    1b14:	e0 e4 20 04 	l.or r7,r4,r4
    1b18:	ac a0 ff ff 	l.xori r5,r0,-1
    1b1c:	9c 81 00 03 	l.addi r4,r1,3
    1b20:	d4 01 48 04 	l.sw 4(r1),r9
    1b24:	07 ff fd 88 	l.jal 1144 <_vsnprintf>
    1b28:	9c 63 10 e8 	l.addi r3,r3,4328
    1b2c:	85 21 00 04 	l.lwz r9,4(r1)
    1b30:	44 00 48 00 	l.jr r9
    1b34:	9c 21 00 08 	l.addi r1,r1,8

00001b38 <vsnprintf_>:
    1b38:	e0 e6 30 04 	l.or r7,r6,r6
    1b3c:	e0 c5 28 04 	l.or r6,r5,r5
    1b40:	e0 a4 20 04 	l.or r5,r4,r4
    1b44:	e0 83 18 04 	l.or r4,r3,r3
    1b48:	18 60 00 00 	l.movhi r3,0x0
    1b4c:	03 ff fd 7e 	l.j 1144 <_vsnprintf>
    1b50:	9c 63 0a 8c 	l.addi r3,r3,2700

00001b54 <fctprintf>:
    1b54:	9c 21 ff f4 	l.addi r1,r1,-12
    1b58:	d4 01 18 00 	l.sw 0(r1),r3
    1b5c:	18 60 00 00 	l.movhi r3,0x0
    1b60:	d4 01 20 04 	l.sw 4(r1),r4
    1b64:	e0 c5 28 04 	l.or r6,r5,r5
    1b68:	9c e1 00 0c 	l.addi r7,r1,12
    1b6c:	e0 81 08 04 	l.or r4,r1,r1
    1b70:	ac a0 ff ff 	l.xori r5,r0,-1
    1b74:	d4 01 48 08 	l.sw 8(r1),r9
    1b78:	07 ff fd 73 	l.jal 1144 <_vsnprintf>
    1b7c:	9c 63 11 14 	l.addi r3,r3,4372
    1b80:	85 21 00 08 	l.lwz r9,8(r1)
    1b84:	44 00 48 00 	l.jr r9
    1b88:	9c 21 00 0c 	l.addi r1,r1,12

00001b8c <memcpy>:
    1b8c:	1a 60 00 00 	l.movhi r19,0x0
    1b90:	e4 05 98 00 	l.sfeq r5,r19
    1b94:	10 00 00 3e 	l.bf 1c8c <memcpy+0x100>
    1b98:	e1 63 18 04 	l.or r11,r3,r3
    1b9c:	e4 03 20 00 	l.sfeq r3,r4
    1ba0:	10 00 00 3b 	l.bf 1c8c <memcpy+0x100>
    1ba4:	e4 63 20 00 	l.sfgeu r3,r4
    1ba8:	10 00 00 3f 	l.bf 1ca4 <memcpy+0x118>
    1bac:	e2 23 28 00 	l.add r17,r3,r5
    1bb0:	e2 23 20 04 	l.or r17,r3,r4
    1bb4:	a6 31 00 03 	l.andi r17,r17,0x3
    1bb8:	e4 11 98 00 	l.sfeq r17,r19
    1bbc:	10 00 00 38 	l.bf 1c9c <memcpy+0x110>
    1bc0:	e2 23 20 05 	l.xor r17,r3,r4
    1bc4:	a6 31 00 03 	l.andi r17,r17,0x3
    1bc8:	e4 31 98 00 	l.sfne r17,r19
    1bcc:	10 00 00 08 	l.bf 1bec <memcpy+0x60>
    1bd0:	e2 25 28 04 	l.or r17,r5,r5
    1bd4:	aa 20 00 03 	l.ori r17,r0,0x3
    1bd8:	e4 a5 88 00 	l.sfleu r5,r17
    1bdc:	10 00 00 2e 	l.bf 1c94 <memcpy+0x108>
    1be0:	e2 64 88 03 	l.and r19,r4,r17
    1be4:	aa 20 00 04 	l.ori r17,r0,0x4
    1be8:	e2 31 98 02 	l.sub r17,r17,r19
    1bec:	e0 a5 88 02 	l.sub r5,r5,r17
    1bf0:	1a 60 00 00 	l.movhi r19,0x0
    1bf4:	e2 e4 98 00 	l.add r23,r4,r19
    1bf8:	e2 ab 98 00 	l.add r21,r11,r19
    1bfc:	92 f7 00 00 	l.lbs r23,0(r23)
    1c00:	9e 73 00 01 	l.addi r19,r19,1
    1c04:	d8 15 b8 00 	l.sb 0(r21),r23
    1c08:	e4 31 98 00 	l.sfne r17,r19
    1c0c:	13 ff ff fb 	l.bf 1bf8 <memcpy+0x6c>
    1c10:	e2 e4 98 00 	l.add r23,r4,r19
    1c14:	e2 6b 88 00 	l.add r19,r11,r17
    1c18:	e0 84 88 00 	l.add r4,r4,r17
    1c1c:	aa 20 00 03 	l.ori r17,r0,0x3
    1c20:	e4 a5 88 00 	l.sfleu r5,r17
    1c24:	10 00 00 0e 	l.bf 1c5c <memcpy+0xd0>
    1c28:	aa 20 00 02 	l.ori r17,r0,0x2
    1c2c:	e2 a5 88 48 	l.srl r21,r5,r17
    1c30:	e2 b5 88 08 	l.sll r21,r21,r17
    1c34:	1a 20 00 00 	l.movhi r17,0x0
    1c38:	e2 e4 88 00 	l.add r23,r4,r17
    1c3c:	87 37 00 00 	l.lwz r25,0(r23)
    1c40:	e2 f3 88 00 	l.add r23,r19,r17
    1c44:	9e 31 00 04 	l.addi r17,r17,4
    1c48:	e4 31 a8 00 	l.sfne r17,r21
    1c4c:	13 ff ff fb 	l.bf 1c38 <memcpy+0xac>
    1c50:	d4 17 c8 00 	l.sw 0(r23),r25
    1c54:	e2 73 88 00 	l.add r19,r19,r17
    1c58:	e0 84 88 00 	l.add r4,r4,r17
    1c5c:	a4 a5 00 03 	l.andi r5,r5,0x3
    1c60:	1a 20 00 00 	l.movhi r17,0x0
    1c64:	e4 05 88 00 	l.sfeq r5,r17
    1c68:	10 00 00 09 	l.bf 1c8c <memcpy+0x100>
    1c6c:	e2 e4 88 00 	l.add r23,r4,r17
    1c70:	e2 b3 88 00 	l.add r21,r19,r17
    1c74:	92 f7 00 00 	l.lbs r23,0(r23)
    1c78:	9e 31 00 01 	l.addi r17,r17,1
    1c7c:	d8 15 b8 00 	l.sb 0(r21),r23
    1c80:	e4 25 88 00 	l.sfne r5,r17
    1c84:	13 ff ff fb 	l.bf 1c70 <memcpy+0xe4>
    1c88:	e2 e4 88 00 	l.add r23,r4,r17
    1c8c:	44 00 48 00 	l.jr r9
    1c90:	15 00 00 00 	l.nop 0x0
    1c94:	03 ff ff d6 	l.j 1bec <memcpy+0x60>
    1c98:	e2 25 28 04 	l.or r17,r5,r5
    1c9c:	03 ff ff e0 	l.j 1c1c <memcpy+0x90>
    1ca0:	e2 63 18 04 	l.or r19,r3,r3
    1ca4:	e0 84 28 00 	l.add r4,r4,r5
    1ca8:	e2 64 88 04 	l.or r19,r4,r17
    1cac:	a6 73 00 03 	l.andi r19,r19,0x3
    1cb0:	1a a0 00 00 	l.movhi r21,0x0
    1cb4:	e4 13 a8 00 	l.sfeq r19,r21
    1cb8:	10 00 00 1a 	l.bf 1d20 <memcpy+0x194>
    1cbc:	aa 60 00 03 	l.ori r19,r0,0x3
    1cc0:	e2 64 88 05 	l.xor r19,r4,r17
    1cc4:	a6 73 00 03 	l.andi r19,r19,0x3
    1cc8:	e4 33 a8 00 	l.sfne r19,r21
    1ccc:	10 00 00 07 	l.bf 1ce8 <memcpy+0x15c>
    1cd0:	e2 65 28 04 	l.or r19,r5,r5
    1cd4:	aa 60 00 04 	l.ori r19,r0,0x4
    1cd8:	e4 a5 98 00 	l.sfleu r5,r19
    1cdc:	10 00 00 03 	l.bf 1ce8 <memcpy+0x15c>
    1ce0:	e2 65 28 04 	l.or r19,r5,r5
    1ce4:	a6 64 00 03 	l.andi r19,r4,0x3
    1ce8:	e0 a5 98 02 	l.sub r5,r5,r19
    1cec:	ae f3 ff ff 	l.xori r23,r19,-1
    1cf0:	ae a0 ff ff 	l.xori r21,r0,-1
    1cf4:	e3 64 a8 00 	l.add r27,r4,r21
    1cf8:	e3 31 a8 00 	l.add r25,r17,r21
    1cfc:	93 7b 00 00 	l.lbs r27,0(r27)
    1d00:	9e b5 ff ff 	l.addi r21,r21,-1
    1d04:	d8 19 d8 00 	l.sb 0(r25),r27
    1d08:	e4 35 b8 00 	l.sfne r21,r23
    1d0c:	13 ff ff fb 	l.bf 1cf8 <memcpy+0x16c>
    1d10:	e3 64 a8 00 	l.add r27,r4,r21
    1d14:	e2 31 98 02 	l.sub r17,r17,r19
    1d18:	e0 84 98 02 	l.sub r4,r4,r19
    1d1c:	aa 60 00 03 	l.ori r19,r0,0x3
    1d20:	e4 a5 98 00 	l.sfleu r5,r19
    1d24:	10 00 00 13 	l.bf 1d70 <memcpy+0x1e4>
    1d28:	aa 60 00 02 	l.ori r19,r0,0x2
    1d2c:	e2 65 98 48 	l.srl r19,r5,r19
    1d30:	e2 f3 98 04 	l.or r23,r19,r19
    1d34:	ae a0 ff fc 	l.xori r21,r0,-4
    1d38:	e3 24 a8 00 	l.add r25,r4,r21
    1d3c:	87 79 00 00 	l.lwz r27,0(r25)
    1d40:	e3 31 a8 00 	l.add r25,r17,r21
    1d44:	d4 19 d8 00 	l.sw 0(r25),r27
    1d48:	9e f7 ff ff 	l.addi r23,r23,-1
    1d4c:	1b 20 00 00 	l.movhi r25,0x0
    1d50:	e4 37 c8 00 	l.sfne r23,r25
    1d54:	13 ff ff f9 	l.bf 1d38 <memcpy+0x1ac>
    1d58:	9e b5 ff fc 	l.addi r21,r21,-4
    1d5c:	e2 60 98 02 	l.sub r19,r0,r19
    1d60:	aa a0 00 02 	l.ori r21,r0,0x2
    1d64:	e2 73 a8 08 	l.sll r19,r19,r21
    1d68:	e2 31 98 00 	l.add r17,r17,r19
    1d6c:	e0 84 98 00 	l.add r4,r4,r19
    1d70:	a4 a5 00 03 	l.andi r5,r5,0x3
    1d74:	1a 60 00 00 	l.movhi r19,0x0
    1d78:	e4 05 98 00 	l.sfeq r5,r19
    1d7c:	13 ff ff c4 	l.bf 1c8c <memcpy+0x100>
    1d80:	15 00 00 00 	l.nop 0x0
    1d84:	ac a5 ff ff 	l.xori r5,r5,-1
    1d88:	ae 60 ff ff 	l.xori r19,r0,-1
    1d8c:	e2 e4 98 00 	l.add r23,r4,r19
    1d90:	e2 b1 98 00 	l.add r21,r17,r19
    1d94:	92 f7 00 00 	l.lbs r23,0(r23)
    1d98:	9e 73 ff ff 	l.addi r19,r19,-1
    1d9c:	d8 15 b8 00 	l.sb 0(r21),r23
    1da0:	e4 33 28 00 	l.sfne r19,r5
    1da4:	13 ff ff fb 	l.bf 1d90 <memcpy+0x204>
    1da8:	e2 e4 98 00 	l.add r23,r4,r19
    1dac:	03 ff ff b8 	l.j 1c8c <memcpy+0x100>
    1db0:	15 00 00 00 	l.nop 0x0

00001db4 <memmove>:
    1db4:	03 ff ff 76 	l.j 1b8c <memcpy>
    1db8:	15 00 00 00 	l.nop 0x0

00001dbc <bcopy>:
    1dbc:	e2 24 20 04 	l.or r17,r4,r4
    1dc0:	e0 83 18 04 	l.or r4,r3,r3
    1dc4:	03 ff ff 72 	l.j 1b8c <memcpy>
    1dc8:	e0 71 88 04 	l.or r3,r17,r17

00001dcc <memset>:
    1dcc:	e1 63 18 04 	l.or r11,r3,r3
    1dd0:	e0 a3 28 00 	l.add r5,r3,r5
    1dd4:	e2 23 18 04 	l.or r17,r3,r3
    1dd8:	a4 84 00 ff 	l.andi r4,r4,0xff
    1ddc:	e4 31 28 00 	l.sfne r17,r5
    1de0:	10 00 00 04 	l.bf 1df0 <memset+0x24>
    1de4:	15 00 00 00 	l.nop 0x0
    1de8:	44 00 48 00 	l.jr r9
    1dec:	15 00 00 00 	l.nop 0x0
    1df0:	d8 11 20 00 	l.sb 0(r17),r4
    1df4:	03 ff ff fa 	l.j 1ddc <memset+0x10>
    1df8:	9e 31 00 01 	l.addi r17,r17,1

00001dfc <uart_init>:
    1dfc:	ae 20 ff 83 	l.xori r17,r0,-125
    1e00:	d8 03 88 05 	l.sb 5(r3),r17
    1e04:	aa 20 00 1b 	l.ori r17,r0,0x1b
    1e08:	d8 03 88 00 	l.sb 0(r3),r17
    1e0c:	d8 03 00 01 	l.sb 1(r3),r0
    1e10:	aa 20 00 03 	l.ori r17,r0,0x3
    1e14:	d8 03 88 03 	l.sb 3(r3),r17
    1e18:	44 00 48 00 	l.jr r9
    1e1c:	15 00 00 00 	l.nop 0x0

00001e20 <uart_wait_rx>:
    1e20:	8e 23 00 05 	l.lbz r17,5(r3)
    1e24:	a6 31 00 01 	l.andi r17,r17,0x1
    1e28:	1a 60 00 00 	l.movhi r19,0x0
    1e2c:	e4 11 98 00 	l.sfeq r17,r19
    1e30:	10 00 00 04 	l.bf 1e40 <uart_wait_rx+0x20>
    1e34:	15 00 00 00 	l.nop 0x0
    1e38:	44 00 48 00 	l.jr r9
    1e3c:	15 00 00 00 	l.nop 0x0
    1e40:	15 00 00 00 	l.nop 0x0
    1e44:	03 ff ff f7 	l.j 1e20 <uart_wait_rx>
    1e48:	15 00 00 00 	l.nop 0x0

00001e4c <uart_wait_tx>:
    1e4c:	8e 23 00 05 	l.lbz r17,5(r3)
    1e50:	a6 31 00 40 	l.andi r17,r17,0x40
    1e54:	1a 60 00 00 	l.movhi r19,0x0
    1e58:	e4 11 98 00 	l.sfeq r17,r19
    1e5c:	10 00 00 04 	l.bf 1e6c <uart_wait_tx+0x20>
    1e60:	15 00 00 00 	l.nop 0x0
    1e64:	44 00 48 00 	l.jr r9
    1e68:	15 00 00 00 	l.nop 0x0
    1e6c:	15 00 00 00 	l.nop 0x0
    1e70:	03 ff ff f7 	l.j 1e4c <uart_wait_tx>
    1e74:	15 00 00 00 	l.nop 0x0

00001e78 <uart_putc>:
    1e78:	9c 21 ff f4 	l.addi r1,r1,-12
    1e7c:	d4 01 80 00 	l.sw 0(r1),r16
    1e80:	d4 01 90 04 	l.sw 4(r1),r18
    1e84:	d4 01 48 08 	l.sw 8(r1),r9
    1e88:	e2 43 18 04 	l.or r18,r3,r3
    1e8c:	07 ff ff f0 	l.jal 1e4c <uart_wait_tx>
    1e90:	e2 04 20 04 	l.or r16,r4,r4
    1e94:	aa 20 00 18 	l.ori r17,r0,0x18
    1e98:	e0 90 88 08 	l.sll r4,r16,r17
    1e9c:	e0 84 88 88 	l.sra r4,r4,r17
    1ea0:	d8 12 20 00 	l.sb 0(r18),r4
    1ea4:	86 01 00 00 	l.lwz r16,0(r1)
    1ea8:	86 41 00 04 	l.lwz r18,4(r1)
    1eac:	85 21 00 08 	l.lwz r9,8(r1)
    1eb0:	44 00 48 00 	l.jr r9
    1eb4:	9c 21 00 0c 	l.addi r1,r1,12

00001eb8 <uart_puts>:
    1eb8:	9c 21 ff f0 	l.addi r1,r1,-16
    1ebc:	d4 01 80 00 	l.sw 0(r1),r16
    1ec0:	d4 01 90 04 	l.sw 4(r1),r18
    1ec4:	d4 01 a0 08 	l.sw 8(r1),r20
    1ec8:	d4 01 48 0c 	l.sw 12(r1),r9
    1ecc:	e2 43 18 04 	l.or r18,r3,r3
    1ed0:	e2 04 20 04 	l.or r16,r4,r4
    1ed4:	92 90 00 00 	l.lbs r20,0(r16)
    1ed8:	1a 20 00 00 	l.movhi r17,0x0
    1edc:	e4 34 88 00 	l.sfne r20,r17
    1ee0:	10 00 00 07 	l.bf 1efc <uart_puts+0x44>
    1ee4:	85 21 00 0c 	l.lwz r9,12(r1)
    1ee8:	86 01 00 00 	l.lwz r16,0(r1)
    1eec:	86 41 00 04 	l.lwz r18,4(r1)
    1ef0:	86 81 00 08 	l.lwz r20,8(r1)
    1ef4:	44 00 48 00 	l.jr r9
    1ef8:	9c 21 00 10 	l.addi r1,r1,16
    1efc:	07 ff ff d4 	l.jal 1e4c <uart_wait_tx>
    1f00:	e0 72 90 04 	l.or r3,r18,r18
    1f04:	9e 10 00 01 	l.addi r16,r16,1
    1f08:	d8 12 a0 00 	l.sb 0(r18),r20
    1f0c:	03 ff ff f3 	l.j 1ed8 <uart_puts+0x20>
    1f10:	92 90 00 00 	l.lbs r20,0(r16)

00001f14 <uart_getc>:
    1f14:	9c 21 ff f8 	l.addi r1,r1,-8
    1f18:	d4 01 80 00 	l.sw 0(r1),r16
    1f1c:	d4 01 48 04 	l.sw 4(r1),r9
    1f20:	07 ff ff c0 	l.jal 1e20 <uart_wait_rx>
    1f24:	e2 03 18 04 	l.or r16,r3,r3
    1f28:	8d 70 00 00 	l.lbz r11,0(r16)
    1f2c:	aa 20 00 18 	l.ori r17,r0,0x18
    1f30:	e1 6b 88 08 	l.sll r11,r11,r17
    1f34:	e1 6b 88 88 	l.sra r11,r11,r17
    1f38:	86 01 00 00 	l.lwz r16,0(r1)
    1f3c:	85 21 00 04 	l.lwz r9,4(r1)
    1f40:	44 00 48 00 	l.jr r9
    1f44:	9c 21 00 08 	l.addi r1,r1,8

00001f48 <vga_clear>:
    1f48:	aa 20 00 03 	l.ori r17,r0,0x3
    1f4c:	70 11 01 00 	l.nios_crr r0,r17,r0,0x0
    1f50:	44 00 48 00 	l.jr r9
    1f54:	15 00 00 00 	l.nop 0x0

00001f58 <vga_textcorr>:
    1f58:	aa 20 00 06 	l.ori r17,r0,0x6
    1f5c:	70 11 19 00 	l.nios_crr r0,r17,r3,0x0
    1f60:	44 00 48 00 	l.jr r9
    1f64:	15 00 00 00 	l.nop 0x0

00001f68 <vga_putc>:
    1f68:	aa 20 00 02 	l.ori r17,r0,0x2
    1f6c:	70 11 19 00 	l.nios_crr r0,r17,r3,0x0
    1f70:	44 00 48 00 	l.jr r9
    1f74:	15 00 00 00 	l.nop 0x0

00001f78 <vga_puts>:
    1f78:	aa 60 00 02 	l.ori r19,r0,0x2
    1f7c:	92 23 00 00 	l.lbs r17,0(r3)
    1f80:	1a a0 00 00 	l.movhi r21,0x0
    1f84:	e4 31 a8 00 	l.sfne r17,r21
    1f88:	10 00 00 04 	l.bf 1f98 <vga_puts+0x20>
    1f8c:	15 00 00 00 	l.nop 0x0
    1f90:	44 00 48 00 	l.jr r9
    1f94:	15 00 00 00 	l.nop 0x0
    1f98:	9c 63 00 01 	l.addi r3,r3,1
    1f9c:	70 13 89 00 	l.nios_crr r0,r19,r17,0x0
    1fa0:	03 ff ff f8 	l.j 1f80 <vga_puts+0x8>
    1fa4:	92 23 00 00 	l.lbs r17,0(r3)

00001fa8 <__udivdi3>:
    1fa8:	1a a0 00 00 	l.movhi r21,0x0
    1fac:	e4 25 a8 00 	l.sfne r5,r21
    1fb0:	e2 64 20 04 	l.or r19,r4,r4
    1fb4:	10 00 00 4c 	l.bf 20e4 <__udivdi3+0x13c>
    1fb8:	e2 23 18 04 	l.or r17,r3,r3
    1fbc:	e4 a6 18 00 	l.sfleu r6,r3
    1fc0:	10 00 00 6c 	l.bf 2170 <__udivdi3+0x1c8>
    1fc4:	aa a0 ff ff 	l.ori r21,r0,0xffff
    1fc8:	e4 46 a8 00 	l.sfgtu r6,r21
    1fcc:	0c 00 00 b1 	l.bnf 2290 <__udivdi3+0x2e8>
    1fd0:	aa a0 00 ff 	l.ori r21,r0,0xff
    1fd4:	1a a0 00 ff 	l.movhi r21,0xff
    1fd8:	aa b5 ff ff 	l.ori r21,r21,0xffff
    1fdc:	e4 46 a8 00 	l.sfgtu r6,r21
    1fe0:	10 00 00 03 	l.bf 1fec <__udivdi3+0x44>
    1fe4:	aa e0 00 18 	l.ori r23,r0,0x18
    1fe8:	aa e0 00 10 	l.ori r23,r0,0x10
    1fec:	1a a0 00 00 	l.movhi r21,0x0
    1ff0:	e3 26 b8 48 	l.srl r25,r6,r23
    1ff4:	9e b5 2c e8 	l.addi r21,r21,11496
    1ff8:	e2 b5 c8 00 	l.add r21,r21,r25
    1ffc:	8e b5 00 00 	l.lbz r21,0(r21)
    2000:	e2 b5 b8 00 	l.add r21,r21,r23
    2004:	aa e0 00 20 	l.ori r23,r0,0x20
    2008:	e4 17 a8 00 	l.sfeq r23,r21
    200c:	10 00 00 07 	l.bf 2028 <__udivdi3+0x80>
    2010:	e3 37 a8 02 	l.sub r25,r23,r21
    2014:	e0 63 c8 08 	l.sll r3,r3,r25
    2018:	e2 a4 a8 48 	l.srl r21,r4,r21
    201c:	e0 c6 c8 08 	l.sll r6,r6,r25
    2020:	e2 35 18 04 	l.or r17,r21,r3
    2024:	e2 64 c8 08 	l.sll r19,r4,r25
    2028:	ab 60 00 10 	l.ori r27,r0,0x10
    202c:	e2 e6 d8 48 	l.srl r23,r6,r27
    2030:	e1 91 bb 0a 	l.divu r12,r17,r23
    2034:	e2 ac bb 06 	l.mul r21,r12,r23
    2038:	e2 31 a8 02 	l.sub r17,r17,r21
    203c:	e2 bb d8 04 	l.or r21,r27,r27
    2040:	e2 31 d8 08 	l.sll r17,r17,r27
    2044:	a7 26 ff ff 	l.andi r25,r6,0xffff
    2048:	e2 b3 a8 48 	l.srl r21,r19,r21
    204c:	e3 79 63 06 	l.mul r27,r25,r12
    2050:	e2 31 a8 04 	l.or r17,r17,r21
    2054:	e4 bb 88 00 	l.sfleu r27,r17
    2058:	10 00 00 0a 	l.bf 2080 <__udivdi3+0xd8>
    205c:	15 00 00 00 	l.nop 0x0
    2060:	e2 31 30 00 	l.add r17,r17,r6
    2064:	e4 46 88 00 	l.sfgtu r6,r17
    2068:	10 00 00 05 	l.bf 207c <__udivdi3+0xd4>
    206c:	9e ac ff ff 	l.addi r21,r12,-1
    2070:	e4 bb 88 00 	l.sfleu r27,r17
    2074:	0c 00 01 3a 	l.bnf 255c <__udivdi3+0x5b4>
    2078:	9d 8c ff fe 	l.addi r12,r12,-2
    207c:	e1 95 a8 04 	l.or r12,r21,r21
    2080:	e2 31 d8 02 	l.sub r17,r17,r27
    2084:	e2 b1 bb 0a 	l.divu r21,r17,r23
    2088:	e2 f5 bb 06 	l.mul r23,r21,r23
    208c:	e2 31 b8 02 	l.sub r17,r17,r23
    2090:	aa e0 00 10 	l.ori r23,r0,0x10
    2094:	e2 31 b8 08 	l.sll r17,r17,r23
    2098:	a6 73 ff ff 	l.andi r19,r19,0xffff
    209c:	e3 39 ab 06 	l.mul r25,r25,r21
    20a0:	e2 31 98 04 	l.or r17,r17,r19
    20a4:	e4 b9 88 00 	l.sfleu r25,r17
    20a8:	10 00 00 09 	l.bf 20cc <__udivdi3+0x124>
    20ac:	e2 26 88 00 	l.add r17,r6,r17
    20b0:	e4 46 88 00 	l.sfgtu r6,r17
    20b4:	10 00 00 05 	l.bf 20c8 <__udivdi3+0x120>
    20b8:	9e 75 ff ff 	l.addi r19,r21,-1
    20bc:	e4 b9 88 00 	l.sfleu r25,r17
    20c0:	0c 00 00 03 	l.bnf 20cc <__udivdi3+0x124>
    20c4:	9e b5 ff fe 	l.addi r21,r21,-2
    20c8:	e2 b3 98 04 	l.or r21,r19,r19
    20cc:	aa 20 00 10 	l.ori r17,r0,0x10
    20d0:	e1 8c 88 08 	l.sll r12,r12,r17
    20d4:	e1 8c a8 04 	l.or r12,r12,r21
    20d8:	19 60 00 00 	l.movhi r11,0x0
    20dc:	44 00 48 00 	l.jr r9
    20e0:	15 00 00 00 	l.nop 0x0
    20e4:	e4 45 18 00 	l.sfgtu r5,r3
    20e8:	0c 00 00 06 	l.bnf 2100 <__udivdi3+0x158>
    20ec:	aa 20 ff ff 	l.ori r17,r0,0xffff
    20f0:	19 80 00 00 	l.movhi r12,0x0
    20f4:	19 60 00 00 	l.movhi r11,0x0
    20f8:	44 00 48 00 	l.jr r9
    20fc:	15 00 00 00 	l.nop 0x0
    2100:	e4 45 88 00 	l.sfgtu r5,r17
    2104:	0c 00 00 74 	l.bnf 22d4 <__udivdi3+0x32c>
    2108:	aa 20 00 ff 	l.ori r17,r0,0xff
    210c:	1a 20 00 ff 	l.movhi r17,0xff
    2110:	aa 31 ff ff 	l.ori r17,r17,0xffff
    2114:	e4 45 88 00 	l.sfgtu r5,r17
    2118:	10 00 00 03 	l.bf 2124 <__udivdi3+0x17c>
    211c:	aa a0 00 18 	l.ori r21,r0,0x18
    2120:	aa a0 00 10 	l.ori r21,r0,0x10
    2124:	1a 20 00 00 	l.movhi r17,0x0
    2128:	e2 65 a8 48 	l.srl r19,r5,r21
    212c:	9e 31 2c e8 	l.addi r17,r17,11496
    2130:	e2 31 98 00 	l.add r17,r17,r19
    2134:	8e 71 00 00 	l.lbz r19,0(r17)
    2138:	e2 73 a8 00 	l.add r19,r19,r21
    213c:	aa 20 00 20 	l.ori r17,r0,0x20
    2140:	e4 31 98 00 	l.sfne r17,r19
    2144:	10 00 00 6b 	l.bf 22f0 <__udivdi3+0x348>
    2148:	e2 f1 98 02 	l.sub r23,r17,r19
    214c:	e4 85 18 00 	l.sfltu r5,r3
    2150:	10 00 00 05 	l.bf 2164 <__udivdi3+0x1bc>
    2154:	a9 80 00 01 	l.ori r12,r0,0x1
    2158:	e4 a6 20 00 	l.sfleu r6,r4
    215c:	0c 00 00 fb 	l.bnf 2548 <__udivdi3+0x5a0>
    2160:	15 00 00 00 	l.nop 0x0
    2164:	19 60 00 00 	l.movhi r11,0x0
    2168:	44 00 48 00 	l.jr r9
    216c:	15 00 00 00 	l.nop 0x0
    2170:	1a 20 00 00 	l.movhi r17,0x0
    2174:	e4 26 88 00 	l.sfne r6,r17
    2178:	10 00 00 4d 	l.bf 22ac <__udivdi3+0x304>
    217c:	aa 20 ff ff 	l.ori r17,r0,0xffff
    2180:	aa 20 00 01 	l.ori r17,r0,0x1
    2184:	e0 d1 33 0a 	l.divu r6,r17,r6
    2188:	aa 20 00 ff 	l.ori r17,r0,0xff
    218c:	e4 46 88 00 	l.sfgtu r6,r17
    2190:	10 00 00 03 	l.bf 219c <__udivdi3+0x1f4>
    2194:	aa e0 00 01 	l.ori r23,r0,0x1
    2198:	1a e0 00 00 	l.movhi r23,0x0
    219c:	aa 20 00 03 	l.ori r17,r0,0x3
    21a0:	e2 f7 88 08 	l.sll r23,r23,r17
    21a4:	1a 20 00 00 	l.movhi r17,0x0
    21a8:	e2 a6 b8 48 	l.srl r21,r6,r23
    21ac:	9e 31 2c e8 	l.addi r17,r17,11496
    21b0:	e2 31 a8 00 	l.add r17,r17,r21
    21b4:	8e b1 00 00 	l.lbz r21,0(r17)
    21b8:	e2 b5 b8 00 	l.add r21,r21,r23
    21bc:	aa 20 00 20 	l.ori r17,r0,0x20
    21c0:	e4 31 a8 00 	l.sfne r17,r21
    21c4:	10 00 00 a4 	l.bf 2454 <__udivdi3+0x4ac>
    21c8:	e3 71 a8 02 	l.sub r27,r17,r21
    21cc:	aa 20 00 10 	l.ori r17,r0,0x10
    21d0:	e0 63 30 02 	l.sub r3,r3,r6
    21d4:	e2 e6 88 48 	l.srl r23,r6,r17
    21d8:	a7 26 ff ff 	l.andi r25,r6,0xffff
    21dc:	a9 60 00 01 	l.ori r11,r0,0x1
    21e0:	e1 83 bb 0a 	l.divu r12,r3,r23
    21e4:	e2 2c bb 06 	l.mul r17,r12,r23
    21e8:	e0 63 88 02 	l.sub r3,r3,r17
    21ec:	aa 20 00 10 	l.ori r17,r0,0x10
    21f0:	e0 63 88 08 	l.sll r3,r3,r17
    21f4:	e2 33 88 48 	l.srl r17,r19,r17
    21f8:	e2 ac cb 06 	l.mul r21,r12,r25
    21fc:	e0 63 88 04 	l.or r3,r3,r17
    2200:	e4 b5 18 00 	l.sfleu r21,r3
    2204:	10 00 00 0a 	l.bf 222c <__udivdi3+0x284>
    2208:	15 00 00 00 	l.nop 0x0
    220c:	e0 63 30 00 	l.add r3,r3,r6
    2210:	e4 46 18 00 	l.sfgtu r6,r3
    2214:	10 00 00 05 	l.bf 2228 <__udivdi3+0x280>
    2218:	9e 2c ff ff 	l.addi r17,r12,-1
    221c:	e4 b5 18 00 	l.sfleu r21,r3
    2220:	0c 00 00 cd 	l.bnf 2554 <__udivdi3+0x5ac>
    2224:	9d 8c ff fe 	l.addi r12,r12,-2
    2228:	e1 91 88 04 	l.or r12,r17,r17
    222c:	e0 63 a8 02 	l.sub r3,r3,r21
    2230:	e2 a3 bb 0a 	l.divu r21,r3,r23
    2234:	e2 35 bb 06 	l.mul r17,r21,r23
    2238:	e0 63 88 02 	l.sub r3,r3,r17
    223c:	e2 35 a8 04 	l.or r17,r21,r21
    2240:	aa a0 00 10 	l.ori r21,r0,0x10
    2244:	e0 63 a8 08 	l.sll r3,r3,r21
    2248:	a6 73 ff ff 	l.andi r19,r19,0xffff
    224c:	e3 31 cb 06 	l.mul r25,r17,r25
    2250:	e0 63 98 04 	l.or r3,r3,r19
    2254:	e4 b9 18 00 	l.sfleu r25,r3
    2258:	10 00 00 09 	l.bf 227c <__udivdi3+0x2d4>
    225c:	e0 66 18 00 	l.add r3,r6,r3
    2260:	e4 46 18 00 	l.sfgtu r6,r3
    2264:	10 00 00 05 	l.bf 2278 <__udivdi3+0x2d0>
    2268:	9e 71 ff ff 	l.addi r19,r17,-1
    226c:	e4 b9 18 00 	l.sfleu r25,r3
    2270:	0c 00 00 03 	l.bnf 227c <__udivdi3+0x2d4>
    2274:	9e 31 ff fe 	l.addi r17,r17,-2
    2278:	e2 33 98 04 	l.or r17,r19,r19
    227c:	aa 60 00 10 	l.ori r19,r0,0x10
    2280:	e1 8c 98 08 	l.sll r12,r12,r19
    2284:	e1 8c 88 04 	l.or r12,r12,r17
    2288:	44 00 48 00 	l.jr r9
    228c:	15 00 00 00 	l.nop 0x0
    2290:	e4 46 a8 00 	l.sfgtu r6,r21
    2294:	10 00 00 03 	l.bf 22a0 <__udivdi3+0x2f8>
    2298:	aa e0 00 01 	l.ori r23,r0,0x1
    229c:	1a e0 00 00 	l.movhi r23,0x0
    22a0:	aa a0 00 03 	l.ori r21,r0,0x3
    22a4:	03 ff ff 52 	l.j 1fec <__udivdi3+0x44>
    22a8:	e2 f7 a8 08 	l.sll r23,r23,r21
    22ac:	e4 46 88 00 	l.sfgtu r6,r17
    22b0:	0f ff ff b7 	l.bnf 218c <__udivdi3+0x1e4>
    22b4:	aa 20 00 ff 	l.ori r17,r0,0xff
    22b8:	1a 20 00 ff 	l.movhi r17,0xff
    22bc:	aa 31 ff ff 	l.ori r17,r17,0xffff
    22c0:	e4 46 88 00 	l.sfgtu r6,r17
    22c4:	13 ff ff b8 	l.bf 21a4 <__udivdi3+0x1fc>
    22c8:	aa e0 00 18 	l.ori r23,r0,0x18
    22cc:	03 ff ff b6 	l.j 21a4 <__udivdi3+0x1fc>
    22d0:	aa e0 00 10 	l.ori r23,r0,0x10
    22d4:	e4 45 88 00 	l.sfgtu r5,r17
    22d8:	10 00 00 03 	l.bf 22e4 <__udivdi3+0x33c>
    22dc:	aa a0 00 01 	l.ori r21,r0,0x1
    22e0:	1a a0 00 00 	l.movhi r21,0x0
    22e4:	aa 20 00 03 	l.ori r17,r0,0x3
    22e8:	03 ff ff 8f 	l.j 2124 <__udivdi3+0x17c>
    22ec:	e2 b5 88 08 	l.sll r21,r21,r17
    22f0:	e3 26 98 48 	l.srl r25,r6,r19
    22f4:	e0 a5 b8 08 	l.sll r5,r5,r23
    22f8:	ab e0 00 10 	l.ori r31,r0,0x10
    22fc:	e3 39 28 04 	l.or r25,r25,r5
    2300:	e2 23 98 48 	l.srl r17,r3,r19
    2304:	e3 79 f8 48 	l.srl r27,r25,r31
    2308:	e1 91 db 0a 	l.divu r12,r17,r27
    230c:	e2 ac db 06 	l.mul r21,r12,r27
    2310:	e0 63 b8 08 	l.sll r3,r3,r23
    2314:	e2 64 98 48 	l.srl r19,r4,r19
    2318:	e2 31 a8 02 	l.sub r17,r17,r21
    231c:	e2 73 18 04 	l.or r19,r19,r3
    2320:	e2 31 f8 08 	l.sll r17,r17,r31
    2324:	a7 b9 ff ff 	l.andi r29,r25,0xffff
    2328:	e3 f3 f8 48 	l.srl r31,r19,r31
    232c:	e2 bd 63 06 	l.mul r21,r29,r12
    2330:	e2 31 f8 04 	l.or r17,r17,r31
    2334:	e4 b5 88 00 	l.sfleu r21,r17
    2338:	10 00 00 0b 	l.bf 2364 <__udivdi3+0x3bc>
    233c:	e0 c6 b8 08 	l.sll r6,r6,r23
    2340:	e2 31 c8 00 	l.add r17,r17,r25
    2344:	e4 59 88 00 	l.sfgtu r25,r17
    2348:	10 00 00 7e 	l.bf 2540 <__udivdi3+0x598>
    234c:	9f ec ff ff 	l.addi r31,r12,-1
    2350:	e4 b5 88 00 	l.sfleu r21,r17
    2354:	10 00 00 7b 	l.bf 2540 <__udivdi3+0x598>
    2358:	15 00 00 00 	l.nop 0x0
    235c:	9d 8c ff fe 	l.addi r12,r12,-2
    2360:	e2 31 c8 00 	l.add r17,r17,r25
    2364:	e2 31 a8 02 	l.sub r17,r17,r21
    2368:	e2 b1 db 0a 	l.divu r21,r17,r27
    236c:	e3 75 db 06 	l.mul r27,r21,r27
    2370:	e2 31 d8 02 	l.sub r17,r17,r27
    2374:	ab 60 00 10 	l.ori r27,r0,0x10
    2378:	e2 31 d8 08 	l.sll r17,r17,r27
    237c:	a6 73 ff ff 	l.andi r19,r19,0xffff
    2380:	e3 7d ab 06 	l.mul r27,r29,r21
    2384:	e2 31 98 04 	l.or r17,r17,r19
    2388:	e4 bb 88 00 	l.sfleu r27,r17
    238c:	10 00 00 0b 	l.bf 23b8 <__udivdi3+0x410>
    2390:	15 00 00 00 	l.nop 0x0
    2394:	e2 31 c8 00 	l.add r17,r17,r25
    2398:	e4 59 88 00 	l.sfgtu r25,r17
    239c:	10 00 00 65 	l.bf 2530 <__udivdi3+0x588>
    23a0:	9e 75 ff ff 	l.addi r19,r21,-1
    23a4:	e4 bb 88 00 	l.sfleu r27,r17
    23a8:	10 00 00 62 	l.bf 2530 <__udivdi3+0x588>
    23ac:	15 00 00 00 	l.nop 0x0
    23b0:	9e b5 ff fe 	l.addi r21,r21,-2
    23b4:	e2 31 c8 00 	l.add r17,r17,r25
    23b8:	ab a0 00 10 	l.ori r29,r0,0x10
    23bc:	e1 8c e8 08 	l.sll r12,r12,r29
    23c0:	e1 8c a8 04 	l.or r12,r12,r21
    23c4:	e3 2c e8 48 	l.srl r25,r12,r29
    23c8:	a6 66 ff ff 	l.andi r19,r6,0xffff
    23cc:	a6 b5 ff ff 	l.andi r21,r21,0xffff
    23d0:	e0 c6 e8 48 	l.srl r6,r6,r29
    23d4:	e3 f5 9b 06 	l.mul r31,r21,r19
    23d8:	e2 79 9b 06 	l.mul r19,r25,r19
    23dc:	e2 b5 33 06 	l.mul r21,r21,r6
    23e0:	e2 b5 98 00 	l.add r21,r21,r19
    23e4:	e3 bf e8 48 	l.srl r29,r31,r29
    23e8:	e2 bd a8 00 	l.add r21,r29,r21
    23ec:	e4 b3 a8 00 	l.sfleu r19,r21
    23f0:	e2 31 d8 02 	l.sub r17,r17,r27
    23f4:	10 00 00 04 	l.bf 2404 <__udivdi3+0x45c>
    23f8:	e3 39 33 06 	l.mul r25,r25,r6
    23fc:	1a 60 00 01 	l.movhi r19,0x1
    2400:	e3 39 98 00 	l.add r25,r25,r19
    2404:	aa 60 00 10 	l.ori r19,r0,0x10
    2408:	e2 75 98 48 	l.srl r19,r21,r19
    240c:	e2 73 c8 00 	l.add r19,r19,r25
    2410:	e4 91 98 00 	l.sfltu r17,r19
    2414:	10 00 00 0c 	l.bf 2444 <__udivdi3+0x49c>
    2418:	e4 11 98 00 	l.sfeq r17,r19
    241c:	0f ff ff 53 	l.bnf 2168 <__udivdi3+0x1c0>
    2420:	19 60 00 00 	l.movhi r11,0x0
    2424:	aa 20 00 10 	l.ori r17,r0,0x10
    2428:	e2 b5 88 08 	l.sll r21,r21,r17
    242c:	a7 ff ff ff 	l.andi r31,r31,0xffff
    2430:	e0 84 b8 08 	l.sll r4,r4,r23
    2434:	e2 b5 f8 00 	l.add r21,r21,r31
    2438:	e4 84 a8 00 	l.sfltu r4,r21
    243c:	0f ff ff 4b 	l.bnf 2168 <__udivdi3+0x1c0>
    2440:	15 00 00 00 	l.nop 0x0
    2444:	9d 8c ff ff 	l.addi r12,r12,-1
    2448:	19 60 00 00 	l.movhi r11,0x0
    244c:	44 00 48 00 	l.jr r9
    2450:	15 00 00 00 	l.nop 0x0
    2454:	ab a0 00 10 	l.ori r29,r0,0x10
    2458:	e0 c6 d8 08 	l.sll r6,r6,r27
    245c:	e2 23 a8 48 	l.srl r17,r3,r21
    2460:	e2 e6 e8 48 	l.srl r23,r6,r29
    2464:	e1 71 bb 0a 	l.divu r11,r17,r23
    2468:	e2 6b bb 06 	l.mul r19,r11,r23
    246c:	e0 63 d8 08 	l.sll r3,r3,r27
    2470:	e2 a4 a8 48 	l.srl r21,r4,r21
    2474:	e2 31 98 02 	l.sub r17,r17,r19
    2478:	e2 b5 18 04 	l.or r21,r21,r3
    247c:	e2 75 e8 48 	l.srl r19,r21,r29
    2480:	e2 31 e8 08 	l.sll r17,r17,r29
    2484:	a7 26 ff ff 	l.andi r25,r6,0xffff
    2488:	e2 31 98 04 	l.or r17,r17,r19
    248c:	e3 b9 5b 06 	l.mul r29,r25,r11
    2490:	e4 bd 88 00 	l.sfleu r29,r17
    2494:	10 00 00 0b 	l.bf 24c0 <__udivdi3+0x518>
    2498:	e2 64 d8 08 	l.sll r19,r4,r27
    249c:	e2 31 30 00 	l.add r17,r17,r6
    24a0:	e4 46 88 00 	l.sfgtu r6,r17
    24a4:	10 00 00 25 	l.bf 2538 <__udivdi3+0x590>
    24a8:	9f 6b ff ff 	l.addi r27,r11,-1
    24ac:	e4 bd 88 00 	l.sfleu r29,r17
    24b0:	10 00 00 22 	l.bf 2538 <__udivdi3+0x590>
    24b4:	15 00 00 00 	l.nop 0x0
    24b8:	9d 6b ff fe 	l.addi r11,r11,-2
    24bc:	e2 31 30 00 	l.add r17,r17,r6
    24c0:	e2 31 e8 02 	l.sub r17,r17,r29
    24c4:	e3 71 bb 0a 	l.divu r27,r17,r23
    24c8:	e3 bb bb 06 	l.mul r29,r27,r23
    24cc:	e2 31 e8 02 	l.sub r17,r17,r29
    24d0:	ab a0 00 10 	l.ori r29,r0,0x10
    24d4:	e0 71 e8 08 	l.sll r3,r17,r29
    24d8:	a6 b5 ff ff 	l.andi r21,r21,0xffff
    24dc:	e2 39 db 06 	l.mul r17,r25,r27
    24e0:	e0 63 a8 04 	l.or r3,r3,r21
    24e4:	e4 b1 18 00 	l.sfleu r17,r3
    24e8:	10 00 00 0b 	l.bf 2514 <__udivdi3+0x56c>
    24ec:	15 00 00 00 	l.nop 0x0
    24f0:	e0 63 30 00 	l.add r3,r3,r6
    24f4:	e4 46 18 00 	l.sfgtu r6,r3
    24f8:	10 00 00 0c 	l.bf 2528 <__udivdi3+0x580>
    24fc:	9e bb ff ff 	l.addi r21,r27,-1
    2500:	e4 b1 18 00 	l.sfleu r17,r3
    2504:	10 00 00 09 	l.bf 2528 <__udivdi3+0x580>
    2508:	15 00 00 00 	l.nop 0x0
    250c:	9f 7b ff fe 	l.addi r27,r27,-2
    2510:	e0 63 30 00 	l.add r3,r3,r6
    2514:	aa a0 00 10 	l.ori r21,r0,0x10
    2518:	e1 6b a8 08 	l.sll r11,r11,r21
    251c:	e0 63 88 02 	l.sub r3,r3,r17
    2520:	03 ff ff 30 	l.j 21e0 <__udivdi3+0x238>
    2524:	e1 6b d8 04 	l.or r11,r11,r27
    2528:	03 ff ff fb 	l.j 2514 <__udivdi3+0x56c>
    252c:	e3 75 a8 04 	l.or r27,r21,r21
    2530:	03 ff ff a2 	l.j 23b8 <__udivdi3+0x410>
    2534:	e2 b3 98 04 	l.or r21,r19,r19
    2538:	03 ff ff e2 	l.j 24c0 <__udivdi3+0x518>
    253c:	e1 7b d8 04 	l.or r11,r27,r27
    2540:	03 ff ff 89 	l.j 2364 <__udivdi3+0x3bc>
    2544:	e1 9f f8 04 	l.or r12,r31,r31
    2548:	19 80 00 00 	l.movhi r12,0x0
    254c:	03 ff ff 07 	l.j 2168 <__udivdi3+0x1c0>
    2550:	19 60 00 00 	l.movhi r11,0x0
    2554:	03 ff ff 36 	l.j 222c <__udivdi3+0x284>
    2558:	e0 63 30 00 	l.add r3,r3,r6
    255c:	03 ff fe c9 	l.j 2080 <__udivdi3+0xd8>
    2560:	e2 31 30 00 	l.add r17,r17,r6

00002564 <__umoddi3>:
    2564:	1a e0 00 00 	l.movhi r23,0x0
    2568:	e4 25 b8 00 	l.sfne r5,r23
    256c:	e2 64 20 04 	l.or r19,r4,r4
    2570:	e2 a3 18 04 	l.or r21,r3,r3
    2574:	10 00 00 33 	l.bf 2640 <__umoddi3+0xdc>
    2578:	e2 23 18 04 	l.or r17,r3,r3
    257c:	e4 a6 18 00 	l.sfleu r6,r3
    2580:	10 00 00 5a 	l.bf 26e8 <__umoddi3+0x184>
    2584:	aa a0 ff ff 	l.ori r21,r0,0xffff
    2588:	e4 46 a8 00 	l.sfgtu r6,r21
    258c:	0c 00 00 9b 	l.bnf 27f8 <__umoddi3+0x294>
    2590:	aa a0 00 ff 	l.ori r21,r0,0xff
    2594:	1a a0 00 ff 	l.movhi r21,0xff
    2598:	aa b5 ff ff 	l.ori r21,r21,0xffff
    259c:	e4 46 a8 00 	l.sfgtu r6,r21
    25a0:	10 00 00 03 	l.bf 25ac <__umoddi3+0x48>
    25a4:	aa e0 00 18 	l.ori r23,r0,0x18
    25a8:	aa e0 00 10 	l.ori r23,r0,0x10
    25ac:	1a a0 00 00 	l.movhi r21,0x0
    25b0:	e3 26 b8 48 	l.srl r25,r6,r23
    25b4:	9e b5 2c e8 	l.addi r21,r21,11496
    25b8:	e2 b5 c8 00 	l.add r21,r21,r25
    25bc:	8e b5 00 00 	l.lbz r21,0(r21)
    25c0:	e2 b5 b8 00 	l.add r21,r21,r23
    25c4:	ab 20 00 20 	l.ori r25,r0,0x20
    25c8:	e4 19 a8 00 	l.sfeq r25,r21
    25cc:	10 00 00 07 	l.bf 25e8 <__umoddi3+0x84>
    25d0:	e2 f9 a8 02 	l.sub r23,r25,r21
    25d4:	e2 23 b8 08 	l.sll r17,r3,r23
    25d8:	e2 a4 a8 48 	l.srl r21,r4,r21
    25dc:	e0 c6 b8 08 	l.sll r6,r6,r23
    25e0:	e2 35 88 04 	l.or r17,r21,r17
    25e4:	e2 64 b8 08 	l.sll r19,r4,r23
    25e8:	ab e0 00 10 	l.ori r31,r0,0x10
    25ec:	e3 26 f8 48 	l.srl r25,r6,r31
    25f0:	e3 b1 cb 0a 	l.divu r29,r17,r25
    25f4:	e2 bd cb 06 	l.mul r21,r29,r25
    25f8:	e2 31 a8 02 	l.sub r17,r17,r21
    25fc:	e2 b1 f8 08 	l.sll r21,r17,r31
    2600:	a7 66 ff ff 	l.andi r27,r6,0xffff
    2604:	e2 33 f8 48 	l.srl r17,r19,r31
    2608:	e3 bb eb 06 	l.mul r29,r27,r29
    260c:	e2 35 88 04 	l.or r17,r21,r17
    2610:	e4 bd 88 00 	l.sfleu r29,r17
    2614:	10 00 00 09 	l.bf 2638 <__umoddi3+0xd4>
    2618:	15 00 00 00 	l.nop 0x0
    261c:	e2 31 30 00 	l.add r17,r17,r6
    2620:	e4 46 88 00 	l.sfgtu r6,r17
    2624:	10 00 00 05 	l.bf 2638 <__umoddi3+0xd4>
    2628:	e4 bd 88 00 	l.sfleu r29,r17
    262c:	10 00 00 03 	l.bf 2638 <__umoddi3+0xd4>
    2630:	15 00 00 00 	l.nop 0x0
    2634:	e2 31 30 00 	l.add r17,r17,r6
    2638:	00 00 00 59 	l.j 279c <__umoddi3+0x238>
    263c:	e2 31 e8 02 	l.sub r17,r17,r29
    2640:	e4 a5 18 00 	l.sfleu r5,r3
    2644:	10 00 00 06 	l.bf 265c <__umoddi3+0xf8>
    2648:	e3 64 20 04 	l.or r27,r4,r4
    264c:	e1 63 18 04 	l.or r11,r3,r3
    2650:	e1 84 20 04 	l.or r12,r4,r4
    2654:	44 00 48 00 	l.jr r9
    2658:	15 00 00 00 	l.nop 0x0
    265c:	aa 20 ff ff 	l.ori r17,r0,0xffff
    2660:	e4 45 88 00 	l.sfgtu r5,r17
    2664:	0c 00 00 76 	l.bnf 283c <__umoddi3+0x2d8>
    2668:	aa 20 00 ff 	l.ori r17,r0,0xff
    266c:	1a 20 00 ff 	l.movhi r17,0xff
    2670:	aa 31 ff ff 	l.ori r17,r17,0xffff
    2674:	e4 45 88 00 	l.sfgtu r5,r17
    2678:	10 00 00 03 	l.bf 2684 <__umoddi3+0x120>
    267c:	aa 60 00 18 	l.ori r19,r0,0x18
    2680:	aa 60 00 10 	l.ori r19,r0,0x10
    2684:	1a 20 00 00 	l.movhi r17,0x0
    2688:	e2 e5 98 48 	l.srl r23,r5,r19
    268c:	9e 31 2c e8 	l.addi r17,r17,11496
    2690:	e2 31 b8 00 	l.add r17,r17,r23
    2694:	8e f1 00 00 	l.lbz r23,0(r17)
    2698:	e2 f7 98 00 	l.add r23,r23,r19
    269c:	aa 20 00 20 	l.ori r17,r0,0x20
    26a0:	e4 31 b8 00 	l.sfne r17,r23
    26a4:	10 00 00 9b 	l.bf 2910 <__umoddi3+0x3ac>
    26a8:	e3 31 b8 02 	l.sub r25,r17,r23
    26ac:	e4 85 18 00 	l.sfltu r5,r3
    26b0:	10 00 00 04 	l.bf 26c0 <__umoddi3+0x15c>
    26b4:	e4 46 20 00 	l.sfgtu r6,r4
    26b8:	10 00 00 09 	l.bf 26dc <__umoddi3+0x178>
    26bc:	e1 75 a8 04 	l.or r11,r21,r21
    26c0:	e3 64 30 02 	l.sub r27,r4,r6
    26c4:	e4 84 d8 00 	l.sfltu r4,r27
    26c8:	e0 a3 28 02 	l.sub r5,r3,r5
    26cc:	0c 00 00 f9 	l.bnf 2ab0 <__umoddi3+0x54c>
    26d0:	aa a0 00 01 	l.ori r21,r0,0x1
    26d4:	e2 a5 a8 02 	l.sub r21,r5,r21
    26d8:	e1 75 a8 04 	l.or r11,r21,r21
    26dc:	e1 9b d8 04 	l.or r12,r27,r27
    26e0:	44 00 48 00 	l.jr r9
    26e4:	15 00 00 00 	l.nop 0x0
    26e8:	1a 20 00 00 	l.movhi r17,0x0
    26ec:	e4 26 88 00 	l.sfne r6,r17
    26f0:	10 00 00 49 	l.bf 2814 <__umoddi3+0x2b0>
    26f4:	aa 20 ff ff 	l.ori r17,r0,0xffff
    26f8:	aa 20 00 01 	l.ori r17,r0,0x1
    26fc:	e0 d1 33 0a 	l.divu r6,r17,r6
    2700:	aa 20 00 ff 	l.ori r17,r0,0xff
    2704:	e4 46 88 00 	l.sfgtu r6,r17
    2708:	10 00 00 03 	l.bf 2714 <__umoddi3+0x1b0>
    270c:	aa a0 00 01 	l.ori r21,r0,0x1
    2710:	1a a0 00 00 	l.movhi r21,0x0
    2714:	aa 20 00 03 	l.ori r17,r0,0x3
    2718:	e2 b5 88 08 	l.sll r21,r21,r17
    271c:	1a 20 00 00 	l.movhi r17,0x0
    2720:	e2 e6 a8 48 	l.srl r23,r6,r21
    2724:	9e 31 2c e8 	l.addi r17,r17,11496
    2728:	e2 31 b8 00 	l.add r17,r17,r23
    272c:	8e 31 00 00 	l.lbz r17,0(r17)
    2730:	e2 31 a8 00 	l.add r17,r17,r21
    2734:	aa a0 00 20 	l.ori r21,r0,0x20
    2738:	e4 35 88 00 	l.sfne r21,r17
    273c:	10 00 00 47 	l.bf 2858 <__umoddi3+0x2f4>
    2740:	e2 f5 88 02 	l.sub r23,r21,r17
    2744:	aa a0 00 10 	l.ori r21,r0,0x10
    2748:	e2 23 30 02 	l.sub r17,r3,r6
    274c:	e3 26 a8 48 	l.srl r25,r6,r21
    2750:	a7 66 ff ff 	l.andi r27,r6,0xffff
    2754:	e2 b1 cb 0a 	l.divu r21,r17,r25
    2758:	e3 b5 cb 06 	l.mul r29,r21,r25
    275c:	e2 31 e8 02 	l.sub r17,r17,r29
    2760:	ab a0 00 10 	l.ori r29,r0,0x10
    2764:	e2 31 e8 08 	l.sll r17,r17,r29
    2768:	e3 b3 e8 48 	l.srl r29,r19,r29
    276c:	e2 b5 db 06 	l.mul r21,r21,r27
    2770:	e2 31 e8 04 	l.or r17,r17,r29
    2774:	e4 b5 88 00 	l.sfleu r21,r17
    2778:	10 00 00 08 	l.bf 2798 <__umoddi3+0x234>
    277c:	15 00 00 00 	l.nop 0x0
    2780:	e2 31 30 00 	l.add r17,r17,r6
    2784:	e4 46 88 00 	l.sfgtu r6,r17
    2788:	10 00 00 04 	l.bf 2798 <__umoddi3+0x234>
    278c:	e4 b5 88 00 	l.sfleu r21,r17
    2790:	0c 00 00 d1 	l.bnf 2ad4 <__umoddi3+0x570>
    2794:	15 00 00 00 	l.nop 0x0
    2798:	e2 31 a8 02 	l.sub r17,r17,r21
    279c:	e2 b1 cb 0a 	l.divu r21,r17,r25
    27a0:	e3 35 cb 06 	l.mul r25,r21,r25
    27a4:	e2 31 c8 02 	l.sub r17,r17,r25
    27a8:	ab 20 00 10 	l.ori r25,r0,0x10
    27ac:	e1 91 c8 08 	l.sll r12,r17,r25
    27b0:	a6 73 ff ff 	l.andi r19,r19,0xffff
    27b4:	e2 35 db 06 	l.mul r17,r21,r27
    27b8:	e1 8c 98 04 	l.or r12,r12,r19
    27bc:	e4 b1 60 00 	l.sfleu r17,r12
    27c0:	10 00 00 09 	l.bf 27e4 <__umoddi3+0x280>
    27c4:	15 00 00 00 	l.nop 0x0
    27c8:	e1 8c 30 00 	l.add r12,r12,r6
    27cc:	e4 46 60 00 	l.sfgtu r6,r12
    27d0:	10 00 00 05 	l.bf 27e4 <__umoddi3+0x280>
    27d4:	e4 b1 60 00 	l.sfleu r17,r12
    27d8:	10 00 00 03 	l.bf 27e4 <__umoddi3+0x280>
    27dc:	15 00 00 00 	l.nop 0x0
    27e0:	e1 8c 30 00 	l.add r12,r12,r6
    27e4:	e1 8c 88 02 	l.sub r12,r12,r17
    27e8:	19 60 00 00 	l.movhi r11,0x0
    27ec:	e1 8c b8 48 	l.srl r12,r12,r23
    27f0:	44 00 48 00 	l.jr r9
    27f4:	15 00 00 00 	l.nop 0x0
    27f8:	e4 46 a8 00 	l.sfgtu r6,r21
    27fc:	10 00 00 03 	l.bf 2808 <__umoddi3+0x2a4>
    2800:	aa e0 00 01 	l.ori r23,r0,0x1
    2804:	1a e0 00 00 	l.movhi r23,0x0
    2808:	aa a0 00 03 	l.ori r21,r0,0x3
    280c:	03 ff ff 68 	l.j 25ac <__umoddi3+0x48>
    2810:	e2 f7 a8 08 	l.sll r23,r23,r21
    2814:	e4 46 88 00 	l.sfgtu r6,r17
    2818:	0f ff ff bb 	l.bnf 2704 <__umoddi3+0x1a0>
    281c:	aa 20 00 ff 	l.ori r17,r0,0xff
    2820:	1a 20 00 ff 	l.movhi r17,0xff
    2824:	aa 31 ff ff 	l.ori r17,r17,0xffff
    2828:	e4 46 88 00 	l.sfgtu r6,r17
    282c:	13 ff ff bc 	l.bf 271c <__umoddi3+0x1b8>
    2830:	aa a0 00 18 	l.ori r21,r0,0x18
    2834:	03 ff ff ba 	l.j 271c <__umoddi3+0x1b8>
    2838:	aa a0 00 10 	l.ori r21,r0,0x10
    283c:	e4 45 88 00 	l.sfgtu r5,r17
    2840:	10 00 00 03 	l.bf 284c <__umoddi3+0x2e8>
    2844:	aa 60 00 01 	l.ori r19,r0,0x1
    2848:	1a 60 00 00 	l.movhi r19,0x0
    284c:	aa 20 00 03 	l.ori r17,r0,0x3
    2850:	03 ff ff 8d 	l.j 2684 <__umoddi3+0x120>
    2854:	e2 73 88 08 	l.sll r19,r19,r17
    2858:	ab e0 00 10 	l.ori r31,r0,0x10
    285c:	e0 c6 b8 08 	l.sll r6,r6,r23
    2860:	e2 a3 88 48 	l.srl r21,r3,r17
    2864:	e3 26 f8 48 	l.srl r25,r6,r31
    2868:	e3 b5 cb 0a 	l.divu r29,r21,r25
    286c:	e2 7d cb 06 	l.mul r19,r29,r25
    2870:	e0 63 b8 08 	l.sll r3,r3,r23
    2874:	e2 24 88 48 	l.srl r17,r4,r17
    2878:	e2 b5 98 02 	l.sub r21,r21,r19
    287c:	e2 31 18 04 	l.or r17,r17,r3
    2880:	e2 71 f8 48 	l.srl r19,r17,r31
    2884:	a7 66 ff ff 	l.andi r27,r6,0xffff
    2888:	e2 b5 f8 08 	l.sll r21,r21,r31
    288c:	e2 b5 98 04 	l.or r21,r21,r19
    2890:	e3 bb eb 06 	l.mul r29,r27,r29
    2894:	e4 bd a8 00 	l.sfleu r29,r21
    2898:	10 00 00 09 	l.bf 28bc <__umoddi3+0x358>
    289c:	e2 64 b8 08 	l.sll r19,r4,r23
    28a0:	e2 b5 30 00 	l.add r21,r21,r6
    28a4:	e4 46 a8 00 	l.sfgtu r6,r21
    28a8:	10 00 00 05 	l.bf 28bc <__umoddi3+0x358>
    28ac:	e4 bd a8 00 	l.sfleu r29,r21
    28b0:	10 00 00 03 	l.bf 28bc <__umoddi3+0x358>
    28b4:	15 00 00 00 	l.nop 0x0
    28b8:	e2 b5 30 00 	l.add r21,r21,r6
    28bc:	e2 b5 e8 02 	l.sub r21,r21,r29
    28c0:	e3 b5 cb 0a 	l.divu r29,r21,r25
    28c4:	e3 fd cb 06 	l.mul r31,r29,r25
    28c8:	e2 b5 f8 02 	l.sub r21,r21,r31
    28cc:	ab e0 00 10 	l.ori r31,r0,0x10
    28d0:	e2 b5 f8 08 	l.sll r21,r21,r31
    28d4:	a6 31 ff ff 	l.andi r17,r17,0xffff
    28d8:	e3 bb eb 06 	l.mul r29,r27,r29
    28dc:	e2 35 88 04 	l.or r17,r21,r17
    28e0:	e4 bd 88 00 	l.sfleu r29,r17
    28e4:	10 00 00 09 	l.bf 2908 <__umoddi3+0x3a4>
    28e8:	15 00 00 00 	l.nop 0x0
    28ec:	e2 31 30 00 	l.add r17,r17,r6
    28f0:	e4 46 88 00 	l.sfgtu r6,r17
    28f4:	10 00 00 05 	l.bf 2908 <__umoddi3+0x3a4>
    28f8:	e4 bd 88 00 	l.sfleu r29,r17
    28fc:	10 00 00 03 	l.bf 2908 <__umoddi3+0x3a4>
    2900:	15 00 00 00 	l.nop 0x0
    2904:	e2 31 30 00 	l.add r17,r17,r6
    2908:	03 ff ff 93 	l.j 2754 <__umoddi3+0x1f0>
    290c:	e2 31 e8 02 	l.sub r17,r17,r29
    2910:	e3 a6 b8 48 	l.srl r29,r6,r23
    2914:	e0 a5 c8 08 	l.sll r5,r5,r25
    2918:	a9 a0 00 10 	l.ori r13,r0,0x10
    291c:	e3 bd 28 04 	l.or r29,r29,r5
    2920:	e2 23 b8 48 	l.srl r17,r3,r23
    2924:	e2 7d 68 48 	l.srl r19,r29,r13
    2928:	e2 b1 9b 0a 	l.divu r21,r17,r19
    292c:	e3 75 9b 06 	l.mul r27,r21,r19
    2930:	e0 63 c8 08 	l.sll r3,r3,r25
    2934:	e3 e4 b8 48 	l.srl r31,r4,r23
    2938:	e2 31 d8 02 	l.sub r17,r17,r27
    293c:	e3 ff 18 04 	l.or r31,r31,r3
    2940:	e3 71 68 08 	l.sll r27,r17,r13
    2944:	a5 fd ff ff 	l.andi r15,r29,0xffff
    2948:	e2 3f 68 48 	l.srl r17,r31,r13
    294c:	e1 8f ab 06 	l.mul r12,r15,r21
    2950:	e2 3b 88 04 	l.or r17,r27,r17
    2954:	e4 ac 88 00 	l.sfleu r12,r17
    2958:	e0 c6 c8 08 	l.sll r6,r6,r25
    295c:	10 00 00 0b 	l.bf 2988 <__umoddi3+0x424>
    2960:	e1 a4 c8 08 	l.sll r13,r4,r25
    2964:	e2 31 e8 00 	l.add r17,r17,r29
    2968:	e4 5d 88 00 	l.sfgtu r29,r17
    296c:	10 00 00 58 	l.bf 2acc <__umoddi3+0x568>
    2970:	9f 75 ff ff 	l.addi r27,r21,-1
    2974:	e4 ac 88 00 	l.sfleu r12,r17
    2978:	10 00 00 55 	l.bf 2acc <__umoddi3+0x568>
    297c:	15 00 00 00 	l.nop 0x0
    2980:	9e b5 ff fe 	l.addi r21,r21,-2
    2984:	e2 31 e8 00 	l.add r17,r17,r29
    2988:	e2 31 60 02 	l.sub r17,r17,r12
    298c:	e3 71 9b 0a 	l.divu r27,r17,r19
    2990:	e2 7b 9b 06 	l.mul r19,r27,r19
    2994:	e2 31 98 02 	l.sub r17,r17,r19
    2998:	aa 60 00 10 	l.ori r19,r0,0x10
    299c:	e2 71 98 08 	l.sll r19,r17,r19
    29a0:	a7 ff ff ff 	l.andi r31,r31,0xffff
    29a4:	e1 ef db 06 	l.mul r15,r15,r27
    29a8:	e2 73 f8 04 	l.or r19,r19,r31
    29ac:	e4 af 98 00 	l.sfleu r15,r19
    29b0:	10 00 00 0b 	l.bf 29dc <__umoddi3+0x478>
    29b4:	15 00 00 00 	l.nop 0x0
    29b8:	e2 73 e8 00 	l.add r19,r19,r29
    29bc:	e4 5d 98 00 	l.sfgtu r29,r19
    29c0:	10 00 00 41 	l.bf 2ac4 <__umoddi3+0x560>
    29c4:	9e 3b ff ff 	l.addi r17,r27,-1
    29c8:	e4 af 98 00 	l.sfleu r15,r19
    29cc:	10 00 00 3e 	l.bf 2ac4 <__umoddi3+0x560>
    29d0:	15 00 00 00 	l.nop 0x0
    29d4:	9f 7b ff fe 	l.addi r27,r27,-2
    29d8:	e2 73 e8 00 	l.add r19,r19,r29
    29dc:	aa 20 00 10 	l.ori r17,r0,0x10
    29e0:	e2 b5 88 08 	l.sll r21,r21,r17
    29e4:	e2 b5 d8 04 	l.or r21,r21,r27
    29e8:	e2 b5 88 48 	l.srl r21,r21,r17
    29ec:	e1 66 88 48 	l.srl r11,r6,r17
    29f0:	a7 7b ff ff 	l.andi r27,r27,0xffff
    29f4:	a7 e6 ff ff 	l.andi r31,r6,0xffff
    29f8:	e1 9b fb 06 	l.mul r12,r27,r31
    29fc:	e3 f5 fb 06 	l.mul r31,r21,r31
    2a00:	e3 7b 5b 06 	l.mul r27,r27,r11
    2a04:	e3 7b f8 00 	l.add r27,r27,r31
    2a08:	e2 2c 88 48 	l.srl r17,r12,r17
    2a0c:	e2 31 d8 00 	l.add r17,r17,r27
    2a10:	e4 bf 88 00 	l.sfleu r31,r17
    2a14:	e2 73 78 02 	l.sub r19,r19,r15
    2a18:	10 00 00 04 	l.bf 2a28 <__umoddi3+0x4c4>
    2a1c:	e2 b5 5b 06 	l.mul r21,r21,r11
    2a20:	1b 60 00 01 	l.movhi r27,0x1
    2a24:	e2 b5 d8 00 	l.add r21,r21,r27
    2a28:	ab e0 00 10 	l.ori r31,r0,0x10
    2a2c:	e3 71 f8 48 	l.srl r27,r17,r31
    2a30:	e2 bb a8 00 	l.add r21,r27,r21
    2a34:	e2 31 f8 08 	l.sll r17,r17,r31
    2a38:	a5 8c ff ff 	l.andi r12,r12,0xffff
    2a3c:	e4 93 a8 00 	l.sfltu r19,r21
    2a40:	10 00 00 14 	l.bf 2a90 <__umoddi3+0x52c>
    2a44:	e2 31 60 00 	l.add r17,r17,r12
    2a48:	e4 33 a8 00 	l.sfne r19,r21
    2a4c:	0c 00 00 0f 	l.bnf 2a88 <__umoddi3+0x524>
    2a50:	e4 6d 88 00 	l.sfgeu r13,r17
    2a54:	e2 2d 88 02 	l.sub r17,r13,r17
    2a58:	e4 8d 88 00 	l.sfltu r13,r17
    2a5c:	e1 73 a8 02 	l.sub r11,r19,r21
    2a60:	10 00 00 03 	l.bf 2a6c <__umoddi3+0x508>
    2a64:	aa 60 00 01 	l.ori r19,r0,0x1
    2a68:	1a 60 00 00 	l.movhi r19,0x0
    2a6c:	e1 6b 98 02 	l.sub r11,r11,r19
    2a70:	e2 eb b8 08 	l.sll r23,r11,r23
    2a74:	e2 31 c8 48 	l.srl r17,r17,r25
    2a78:	e1 6b c8 48 	l.srl r11,r11,r25
    2a7c:	e1 97 88 04 	l.or r12,r23,r17
    2a80:	44 00 48 00 	l.jr r9
    2a84:	15 00 00 00 	l.nop 0x0
    2a88:	13 ff ff f3 	l.bf 2a54 <__umoddi3+0x4f0>
    2a8c:	15 00 00 00 	l.nop 0x0
    2a90:	e0 d1 30 02 	l.sub r6,r17,r6
    2a94:	e4 91 30 00 	l.sfltu r17,r6
    2a98:	0c 00 00 09 	l.bnf 2abc <__umoddi3+0x558>
    2a9c:	aa 20 00 01 	l.ori r17,r0,0x1
    2aa0:	e2 31 e8 00 	l.add r17,r17,r29
    2aa4:	e2 b5 88 02 	l.sub r21,r21,r17
    2aa8:	03 ff ff eb 	l.j 2a54 <__umoddi3+0x4f0>
    2aac:	e2 26 30 04 	l.or r17,r6,r6
    2ab0:	1a a0 00 00 	l.movhi r21,0x0
    2ab4:	03 ff ff 09 	l.j 26d8 <__umoddi3+0x174>
    2ab8:	e2 a5 a8 02 	l.sub r21,r5,r21
    2abc:	03 ff ff f9 	l.j 2aa0 <__umoddi3+0x53c>
    2ac0:	1a 20 00 00 	l.movhi r17,0x0
    2ac4:	03 ff ff c6 	l.j 29dc <__umoddi3+0x478>
    2ac8:	e3 71 88 04 	l.or r27,r17,r17
    2acc:	03 ff ff af 	l.j 2988 <__umoddi3+0x424>
    2ad0:	e2 bb d8 04 	l.or r21,r27,r27
    2ad4:	03 ff ff 31 	l.j 2798 <__umoddi3+0x234>
    2ad8:	e2 31 30 00 	l.add r17,r17,r6

Déassemblage de la section .rodata :

00002adc <__clz_tab-0x20c>:
    2adc:	53 74 61 72 	*inconnu*
    2ae0:	74 69 6e 67 	*inconnu*
    2ae4:	20 64 72 61 	*inconnu*
    2ae8:	77 69 6e 67 	*inconnu*
    2aec:	20 61 20 66 	*inconnu*
    2af0:	72 61 63 74 	l.nios_crc r19,r1,r12,0x74
    2af4:	61 6c 0a 00 	*inconnu*
    2af8:	56 61 6c 75 	*inconnu*
    2afc:	65 20 6f 66 	*inconnu*
    2b00:	20 62 75 66 	*inconnu*
    2b04:	66 65 72 20 	*inconnu*
    2b08:	3a 20 25 64 	*inconnu*
    2b0c:	20 0a 00 56 	*inconnu*
    2b10:	61 6c 75 65 	*inconnu*
    2b14:	20 6f 66 20 	*inconnu*
    2b18:	72 65 67 69 	l.nios_ccc r19,r5,r12,0x69
    2b1c:	73 74 65 72 	l.nios_ccr r27,r20,r12,0x72
    2b20:	20 25 78 20 	*inconnu*
    2b24:	0a 00 56 61 	l.adrp r16,acc4000 <_end+0xac3f1d4>
    2b28:	6c 75 65 20 	l.lwa r3,25888(r21)
    2b2c:	69 6e 20 66 	*inconnu*
    2b30:	72 61 6d 65 	l.nios_ccr r19,r1,r13,0x65
    2b34:	42 75 66 66 	*inconnu*
    2b38:	65 72 20 69 	*inconnu*
    2b3c:	73 20 3a 20 	l.nios_rrc r25,r0,r7,0x20
    2b40:	25 78 20 0a 	*inconnu*
    2b44:	00 44 6f 6e 	l.j 111e8fc <_end+0x1099ad0>
    2b48:	65 0a 00 49 	*inconnu*
    2b4c:	24 20 6d 69 	*inconnu*
    2b50:	73 73 65 73 	l.nios_ccr r27,r19,r12,0x73
    2b54:	00 44 24 20 	l.j 110bbd4 <_end+0x1086da8>
    2b58:	6d 69 73 73 	l.lwa r11,29555(r9)
    2b5c:	65 73 00 53 	*inconnu*
    2b60:	74 61 6c 6c 	*inconnu*
    2b64:	20 74 69 6d 	*inconnu*
    2b68:	65 00 42 75 	*inconnu*
    2b6c:	73 20 69 64 	l.nios_crr r25,r0,r13,0x64
    2b70:	6c 65 20 74 	l.lwa r3,8308(r5)
    2b74:	69 6d 65 00 	*inconnu*
    2b78:	52 75 6e 74 	*inconnu*
    2b7c:	69 6d 65 00 	*inconnu*
    2b80:	64 65 61 64 	*inconnu*
    2b84:	21 00 62 75 	l.trap 0x6275
    2b88:	73 20 65 72 	l.nios_ccr r25,r0,r12,0x72
    2b8c:	72 6f 72 21 	l.nios_rrc r19,r15,r14,0x21
    2b90:	00 44 61 74 	l.j 111b160 <_end+0x1096334>
    2b94:	61 20 70 61 	*inconnu*
    2b98:	67 65 20 66 	*inconnu*
    2b9c:	61 75 6c 74 	*inconnu*
    2ba0:	00 69 20 70 	l.j 1a4ad60 <_end+0x19c5f34>
    2ba4:	61 67 65 20 	*inconnu*
    2ba8:	66 61 75 6c 	*inconnu*
    2bac:	74 00 74 69 	*inconnu*
    2bb0:	63 6b 00 61 	*inconnu*
    2bb4:	6c 6c 69 67 	l.lwa r3,26983(r12)
    2bb8:	21 00 3f 3f 	l.trap 0x3f3f
    2bbc:	3f 3f 20 00 	*inconnu*
    2bc0:	70 69 6e 67 	l.nios_rcc r3,r9,r13,0x67
    2bc4:	00 64 74 6c 	l.j 191fd74 <_end+0x189af48>
    2bc8:	62 00 69 74 	*inconnu*
    2bcc:	6c 62 00 52 	l.lwa r3,82(r2)
    2bd0:	61 6e 67 65 	*inconnu*
    2bd4:	21 00 53 79 	l.trap 0x5379
    2bd8:	73 63 61 6c 	l.nios_crr r27,r3,r12,0x6c
    2bdc:	6c 00 54 72 	l.lwa r0,21618(r0)
    2be0:	61 70 21 00 	*inconnu*
    2be4:	45 50 43 52 	*inconnu*
    2be8:	20 3d 20 30 	*inconnu*
    2bec:	78 25 30 38 	*inconnu*
    2bf0:	58 0a 00 45 	*inconnu*
    2bf4:	45 41 52 20 	*inconnu*
    2bf8:	3d 20 30 78 	*inconnu*
    2bfc:	25 30 38 58 	*inconnu*
    2c00:	0a 00 45 53 	l.adrp r16,8aa8000 <_end+0x8a231d4>
    2c04:	52 20 20 3d 	*inconnu*
    2c08:	20 30 78 25 	*inconnu*
    2c0c:	30 38 58 0a 	*inconnu*
    2c10:	00 49 6e 73 	l.j 125e5dc <_end+0x11d97b0>
    2c14:	74 72 75 63 	*inconnu*
    2c18:	74 69 6f 6e 	*inconnu*
    2c1c:	20 3d 20 30 	*inconnu*
    2c20:	78 25 30 38 	*inconnu*
    2c24:	58 0a 00 42 	*inconnu*
    2c28:	72 65 61 6b 	l.nios_crr r19,r5,r12,0x6b
    2c2c:	00 5b 20 41 	l.j 16cad30 <_end+0x1645f04>
    2c30:	53 53 45 52 	*inconnu*
    2c34:	54 20 5d 20 	*inconnu*
    2c38:	63 70 75 5f 	*inconnu*
    2c3c:	66 72 65 71 	*inconnu*
    2c40:	20 21 3d 20 	*inconnu*
    2c44:	30 20 28 66 	*inconnu*
    2c48:	72 6f 6d 20 	l.nios_ccr r19,r15,r13,0x20
    2c4c:	73 75 70 70 	l.nios_rrr r27,r21,r14,0x70
    2c50:	6f 72 74 2f 	l.lwa r27,29743(r18)
    2c54:	73 72 63 2f 	l.nios_crc r27,r18,r12,0x2f
    2c58:	70 65 72 66 	l.nios_rrc r3,r5,r14,0x66
    2c5c:	2e 63 3a 33 	*inconnu*
    2c60:	31 29 0a 00 	*inconnu*
    2c64:	63 70 75 20 	*inconnu*
    2c68:	66 72 65 71 	*inconnu*
    2c6c:	75 65 6e 63 	*inconnu*
    2c70:	79 20 69 73 	*inconnu*
    2c74:	20 6e 6f 74 	*inconnu*
    2c78:	20 69 6e 69 	*inconnu*
    2c7c:	74 69 61 6c 	*inconnu*
    2c80:	69 7a 65 64 	*inconnu*
    2c84:	2c 20 63 61 	*inconnu*
    2c88:	6c 6c 20 70 	l.lwa r3,8304(r12)
    2c8c:	65 72 66 5f 	*inconnu*
    2c90:	69 6e 69 74 	*inconnu*
    2c94:	28 29 20 66 	*inconnu*
    2c98:	69 72 73 74 	*inconnu*
    2c9c:	21 00 6e 6f 	l.trap 0x6e6f
    2ca0:	20 64 65 73 	*inconnu*
    2ca4:	63 00 25 2d 	*inconnu*
    2ca8:	33 32 73 20 	*inconnu*
    2cac:	5b 25 30 32 	*inconnu*
    2cb0:	64 5d 20 3a 	*inconnu*
    2cb4:	20 25 6c 6c 	*inconnu*
    2cb8:	64 20 63 79 	*inconnu*
    2cbc:	63 6c 65 73 	*inconnu*
    2cc0:	0a 00 25 2d 	l.adrp r16,4a5c000 <_end+0x49d71d4>
    2cc4:	33 32 73 20 	*inconnu*
    2cc8:	5b 25 30 32 	*inconnu*
    2ccc:	64 5d 20 3a 	*inconnu*
    2cd0:	20 25 30 32 	*inconnu*
    2cd4:	75 3a 25 30 	*inconnu*
    2cd8:	32 75 3a 25 	*inconnu*
    2cdc:	30 32 75 2e 	*inconnu*
    2ce0:	25 30 33 75 	*inconnu*
    2ce4:	0a 00 00 00 	l.adrp r16,2000 <__udivdi3+0x58>

00002ce8 <__clz_tab>:
    2ce8:	00 01 02 02 	l.j 434f0 <frameBuffer+0x3e6c8>
    2cec:	03 03 03 03 	l.j fc0c38f8 <_end+0xfc03eacc>
    2cf0:	04 04 04 04 	l.jal 103d00 <_end+0x7eed4>
    2cf4:	04 04 04 04 	l.jal 103d04 <_end+0x7eed8>
    2cf8:	05 05 05 05 	l.jal 414410c <_end+0x40bf2e0>
    2cfc:	05 05 05 05 	l.jal 4144110 <_end+0x40bf2e4>
    2d00:	05 05 05 05 	l.jal 4144114 <_end+0x40bf2e8>
    2d04:	05 05 05 05 	l.jal 4144118 <_end+0x40bf2ec>
    2d08:	06 06 06 06 	l.jal f8184520 <_end+0xf80ff6f4>
    2d0c:	06 06 06 06 	l.jal f8184524 <_end+0xf80ff6f8>
    2d10:	06 06 06 06 	l.jal f8184528 <_end+0xf80ff6fc>
    2d14:	06 06 06 06 	l.jal f818452c <_end+0xf80ff700>
    2d18:	06 06 06 06 	l.jal f8184530 <_end+0xf80ff704>
    2d1c:	06 06 06 06 	l.jal f8184534 <_end+0xf80ff708>
    2d20:	06 06 06 06 	l.jal f8184538 <_end+0xf80ff70c>
    2d24:	06 06 06 06 	l.jal f818453c <_end+0xf80ff710>
    2d28:	07 07 07 07 	l.jal fc1c4944 <_end+0xfc13fb18>
    2d2c:	07 07 07 07 	l.jal fc1c4948 <_end+0xfc13fb1c>
    2d30:	07 07 07 07 	l.jal fc1c494c <_end+0xfc13fb20>
    2d34:	07 07 07 07 	l.jal fc1c4950 <_end+0xfc13fb24>
    2d38:	07 07 07 07 	l.jal fc1c4954 <_end+0xfc13fb28>
    2d3c:	07 07 07 07 	l.jal fc1c4958 <_end+0xfc13fb2c>
    2d40:	07 07 07 07 	l.jal fc1c495c <_end+0xfc13fb30>
    2d44:	07 07 07 07 	l.jal fc1c4960 <_end+0xfc13fb34>
    2d48:	07 07 07 07 	l.jal fc1c4964 <_end+0xfc13fb38>
    2d4c:	07 07 07 07 	l.jal fc1c4968 <_end+0xfc13fb3c>
    2d50:	07 07 07 07 	l.jal fc1c496c <_end+0xfc13fb40>
    2d54:	07 07 07 07 	l.jal fc1c4970 <_end+0xfc13fb44>
    2d58:	07 07 07 07 	l.jal fc1c4974 <_end+0xfc13fb48>
    2d5c:	07 07 07 07 	l.jal fc1c4978 <_end+0xfc13fb4c>
    2d60:	07 07 07 07 	l.jal fc1c497c <_end+0xfc13fb50>
    2d64:	07 07 07 07 	l.jal fc1c4980 <_end+0xfc13fb54>
    2d68:	08 08 08 08 	l.adrp r0,1012000 <_end+0xf8d1d4>
    2d6c:	08 08 08 08 	l.adrp r0,1012000 <_end+0xf8d1d4>
    2d70:	08 08 08 08 	l.adrp r0,1012000 <_end+0xf8d1d4>
    2d74:	08 08 08 08 	l.adrp r0,1012000 <_end+0xf8d1d4>
    2d78:	08 08 08 08 	l.adrp r0,1012000 <_end+0xf8d1d4>
    2d7c:	08 08 08 08 	l.adrp r0,1012000 <_end+0xf8d1d4>
    2d80:	08 08 08 08 	l.adrp r0,1012000 <_end+0xf8d1d4>
    2d84:	08 08 08 08 	l.adrp r0,1012000 <_end+0xf8d1d4>
    2d88:	08 08 08 08 	l.adrp r0,1012000 <_end+0xf8d1d4>
    2d8c:	08 08 08 08 	l.adrp r0,1012000 <_end+0xf8d1d4>
    2d90:	08 08 08 08 	l.adrp r0,1012000 <_end+0xf8d1d4>
    2d94:	08 08 08 08 	l.adrp r0,1012000 <_end+0xf8d1d4>
    2d98:	08 08 08 08 	l.adrp r0,1012000 <_end+0xf8d1d4>
    2d9c:	08 08 08 08 	l.adrp r0,1012000 <_end+0xf8d1d4>
    2da0:	08 08 08 08 	l.adrp r0,1012000 <_end+0xf8d1d4>
    2da4:	08 08 08 08 	l.adrp r0,1012000 <_end+0xf8d1d4>
    2da8:	08 08 08 08 	l.adrp r0,1012000 <_end+0xf8d1d4>
    2dac:	08 08 08 08 	l.adrp r0,1012000 <_end+0xf8d1d4>
    2db0:	08 08 08 08 	l.adrp r0,1012000 <_end+0xf8d1d4>
    2db4:	08 08 08 08 	l.adrp r0,1012000 <_end+0xf8d1d4>
    2db8:	08 08 08 08 	l.adrp r0,1012000 <_end+0xf8d1d4>
    2dbc:	08 08 08 08 	l.adrp r0,1012000 <_end+0xf8d1d4>
    2dc0:	08 08 08 08 	l.adrp r0,1012000 <_end+0xf8d1d4>
    2dc4:	08 08 08 08 	l.adrp r0,1012000 <_end+0xf8d1d4>
    2dc8:	08 08 08 08 	l.adrp r0,1012000 <_end+0xf8d1d4>
    2dcc:	08 08 08 08 	l.adrp r0,1012000 <_end+0xf8d1d4>
    2dd0:	08 08 08 08 	l.adrp r0,1012000 <_end+0xf8d1d4>
    2dd4:	08 08 08 08 	l.adrp r0,1012000 <_end+0xf8d1d4>
    2dd8:	08 08 08 08 	l.adrp r0,1012000 <_end+0xf8d1d4>
    2ddc:	08 08 08 08 	l.adrp r0,1012000 <_end+0xf8d1d4>
    2de0:	08 08 08 08 	l.adrp r0,1012000 <_end+0xf8d1d4>
    2de4:	08 08 08 08 	l.adrp r0,1012000 <_end+0xf8d1d4>

Déassemblage de la section .eh_frame :

00002de8 <.eh_frame>:
    2de8:	00 00 00 10 	l.j 2e28 <__clz_tab+0x140>
    2dec:	00 00 00 00 	l.j 2dec <__clz_tab+0x104>
    2df0:	01 7a 52 00 	l.j 5e975f0 <_end+0x5e127c4>
    2df4:	04 7c 09 01 	l.jal 1f051f8 <_end+0x1e803cc>
    2df8:	1b 0d 01 00 	*inconnu*
    2dfc:	00 00 00 10 	l.j 2e3c <__clz_tab+0x154>
    2e00:	00 00 00 18 	l.j 2e60 <__clz_tab+0x178>
    2e04:	ff ff f1 a4 	*inconnu*
    2e08:	00 00 05 bc 	l.j 44f8 <__clz_tab+0x1810>
    2e0c:	00 00 00 00 	l.j 2e0c <__clz_tab+0x124>
    2e10:	00 00 00 10 	l.j 2e50 <__clz_tab+0x168>
    2e14:	00 00 00 2c 	l.j 2ec4 <__clz_tab+0x1dc>
    2e18:	ff ff f7 4c 	*inconnu*
    2e1c:	00 00 05 78 	l.j 43fc <__clz_tab+0x1714>
    2e20:	00 00 00 00 	l.j 2e20 <__clz_tab+0x138>

Déassemblage de la section .data :

00004e24 <assert_printf>:
    4e24:	00 00 1a 78 	l.j b804 <_edata+0x69dc>

Déassemblage de la section .comment :

00000000 <.comment>:
   0:	47 43 43 3a 	*inconnu*
   4:	20 28 47 4e 	*inconnu*
   8:	55 29 20 31 	*inconnu*
   c:	33 2e 32 2e 	*inconnu*
  10:	Address 0x10 is out of bounds.


Déassemblage de la section .debug_aranges :

00000000 <.debug_aranges>:
   0:	00 00 00 1c 	l.j 70 <_start>
   4:	00 02 00 00 	l.j 80004 <frameBuffer+0x7b1dc>
   8:	00 00 04 00 	l.j 1008 <_ntoa_long_long+0xe0>
	...
  14:	00 00 06 4c 	l.j 1944 <_vsnprintf+0x800>
	...
  20:	00 00 00 1c 	l.j 90 <_exception_handler>
  24:	00 02 00 00 	l.j 80024 <frameBuffer+0x7b1fc>
  28:	07 6e 04 00 	l.jal fdb81028 <_end+0xfdafc1fc>
	...
  34:	00 00 05 f0 	l.j 17f4 <_vsnprintf+0x6b0>
	...
  40:	00 00 00 1c 	l.j b0 <_exception_handler+0x20>
  44:	00 02 00 00 	l.j 80044 <frameBuffer+0x7b21c>
  48:	0f 11 04 00 	l.bnf fc441048 <_end+0xfc3bc21c>
  4c:	00 00 00 00 	l.j 4c <__OR1300__+0x4b>
  50:	00 00 1f a8 	l.j 7ef0 <frameBuffer+0x30c8>
  54:	00 00 05 bc 	l.j 1744 <_vsnprintf+0x600>
	...
  60:	00 00 00 1c 	l.j d0 <_exception_handler+0x40>
  64:	00 02 00 00 	l.j 80064 <frameBuffer+0x7b23c>
  68:	16 45 04 00 	*inconnu*
  6c:	00 00 00 00 	l.j 6c <__OR1300__+0x6b>
  70:	00 00 25 64 	l.j 9600 <frameBuffer+0x47d8>
  74:	00 00 05 78 	l.j 1654 <_vsnprintf+0x510>
	...
  80:	00 00 00 14 	l.j d0 <_exception_handler+0x40>
  84:	00 02 00 00 	l.j 80084 <frameBuffer+0x7b25c>
  88:	1d c0 04 00 	*inconnu*
	...

Déassemblage de la section .debug_info :

00000000 <.debug_info>:
       0:	00 00 07 6a 	l.j 1da8 <memcpy+0x21c>
       4:	00 05 01 04 	l.j 140414 <_end+0xbb5e8>
       8:	00 00 00 00 	l.j 8 <__OR1300__+0x7>
       c:	11 00 00 00 	l.bf 400000c <_end+0x3f7b1e0>
      10:	d5 1d 00 00 	l.sw 16384(r29),r0
      14:	00 00 00 00 	l.j 14 <__OR1300__+0x13>
      18:	00 2f 00 00 	l.j bc0018 <_end+0xb3b1ec>
      1c:	00 00 00 00 	l.j 1c <__OR1300__+0x1b>
      20:	06 4c 00 00 	l.jal f9300020 <_end+0xf927b1f4>
      24:	00 00 04 08 	l.j 1044 <_ntoa_long_long+0x11c>
      28:	07 00 00 00 	l.jal fc000028 <_end+0xfbf7b1fc>
      2c:	4b 04 04 07 	*inconnu*
      30:	00 00 00 55 	l.j 184 <_exception_handler+0xf4>
      34:	12 04 05 69 	l.bf f81015d8 <_end+0xf807c7ac>
      38:	6e 74 00 04 	l.lwa r19,4(r20)
      3c:	08 05 00 00 	l.adrp r0,a0000000 <_end+0x9ff7b1d4>
      40:	00 3d 04 08 	l.j f41060 <_end+0xebc234>
      44:	04 00 00 00 	l.jal 44 <__OR1300__+0x43>
      48:	71 04 01 08 	l.nios_crr r8,r4,r0,0x8
      4c:	00 00 00 7d 	l.j 240 <main+0x4c>
      50:	04 01 06 00 	l.jal 41850 <frameBuffer+0x3ca28>
      54:	00 00 86 04 	l.j 21864 <frameBuffer+0x1ca3c>
      58:	01 06 00 00 	l.j 4180058 <_end+0x40fb22c>
      5c:	00 7f 08 00 	l.j 1fc205c <_end+0x1f3d230>
      60:	00 00 9f 7b 	l.j 27e4c <frameBuffer+0x23024>
      64:	16 00 00 00 	*inconnu*
      68:	49 0a 00 00 	*inconnu*
      6c:	00 5e 04 02 	l.j 1781074 <_end+0x16fc248>
      70:	05 00 00 00 	l.jal 4000070 <_end+0x3f7b244>
      74:	16 04 02 07 	*inconnu*
      78:	00 00 00 b0 	l.j 338 <main+0x144>
      7c:	08 00 00 01 	l.adrp r0,2000 <__udivdi3+0x58>
      80:	79 80 0f 00 	*inconnu*
      84:	00 00 34 08 	l.j d0a4 <frameBuffer+0x827c>
      88:	00 00 01 78 	l.j 668 <perf_cpu_freq+0x24>
      8c:	81 16 00 00 	*inconnu*
      90:	00 2d 08 00 	l.j b42090 <_end+0xabd264>
      94:	00 00 c4 84 	l.j 312a4 <frameBuffer+0x2c47c>
      98:	0f 00 00 00 	l.bnf fc000098 <_end+0xfbf7b26c>
      9c:	3b 08 00 00 	*inconnu*
      a0:	00 c3 85 16 	l.j 30e14f8 <_end+0x305c6cc>
      a4:	00 00 00 26 	l.j 13c <_exception_handler+0xac>
      a8:	04 04 04 00 	l.jal 1010a8 <_end+0x7c27c>
      ac:	00 00 10 04 	l.j 40bc <__clz_tab+0x13d4>
      b0:	08 03 00 00 	l.adrp r0,60000000 <_end+0x5ff7b1d4>
      b4:	00 08 04 08 	l.j 2010d4 <_end+0x17c2a8>
      b8:	04 00 00 00 	l.jal b8 <_exception_handler+0x28>
      bc:	76 04 10 03 	l.cas r16,r4,r2,0x3
      c0:	00 00 01 57 	l.j 61c <trap_handler+0x8c>
      c4:	13 00 00 00 	l.bf fc0000c4 <_end+0xfbf7b298>
      c8:	a7 08 02 01 	l.andi r24,r8,0x201
      cc:	ef 0a 00 00 	*inconnu*
      d0:	00 ef 14 00 	l.j 3bc50d0 <_end+0x3b402a4>
      d4:	00 00 62 02 	l.j 188dc <frameBuffer+0x13ab4>
      d8:	01 ef 1a 00 	l.j 7bc68d8 <_end+0x7b41aac>
      dc:	00 00 7c 00 	l.j 1f0dc <frameBuffer+0x1a2b4>
      e0:	15 6c 6f 77 	*inconnu*
      e4:	00 02 01 ef 	l.j 808a0 <frameBuffer+0x7ba78>
      e8:	20 00 00 00 	l.sys 0x0
      ec:	7c 04 00 16 	*inconnu*
      f0:	08 02 01 f8 	l.adrp r0,403f0000 <_end+0x4036b1d4>
      f4:	09 00 00 01 	l.adrp r8,2000 <__udivdi3+0x58>
      f8:	0f 0c 73 00 	l.bnf fc31ccf8 <_end+0xfc297ecc>
      fc:	01 fa 13 00 	l.j 7e84cfc <_end+0x7dffed0>
     100:	00 00 c4 0c 	l.j 31130 <frameBuffer+0x2c308>
     104:	6c 6c 00 01 	l.lwa r3,1(r12)
     108:	fb 0a 00 00 	*inconnu*
     10c:	00 92 00 17 	l.j 2480168 <_end+0x23fb33c>
     110:	00 00 00 00 	l.j 110 <_exception_handler+0x80>
     114:	02 01 fc 03 	l.j f807f120 <_end+0xf7ffa2f4>
     118:	00 00 00 ef 	l.j 4d4 <main+0x2e0>
     11c:	0a 00 00 01 	l.adrp r16,2000 <__udivdi3+0x58>
     120:	0f 18 00 00 	l.bnf fc600120 <_end+0xfc57b2f4>
     124:	00 69 00 00 	l.j 1a40124 <_end+0x19bb2f8>
     128:	01 31 19 00 	l.j 4c46528 <_end+0x4bc16fc>
     12c:	00 00 2d ff 	l.j b928 <frameBuffer+0x6b00>
     130:	00 0a 00 00 	l.j 280130 <_end+0x1fb304>
     134:	01 21 1a 00 	l.j 4846934 <_end+0x47c1b08>
     138:	00 00 67 02 	l.j 19d40 <frameBuffer+0x14f18>
     13c:	02 06 16 00 	l.j f818593c <_end+0xf8100b10>
     140:	00 01 31 1b 	l.j 4c5ac <frameBuffer+0x47784>
     144:	00 00 00 34 	l.j 214 <main+0x20>
     148:	01 04 bb 01 	l.j 412ed4c <_end+0x40a9f20>
     14c:	00 00 00 92 	l.j 394 <main+0x1a0>
     150:	00 00 00 00 	l.j 150 <_exception_handler+0xc0>
     154:	00 00 06 4c 	l.j 1a84 <printf_+0xc>
     158:	01 9c 00 00 	l.j 6700158 <_end+0x667b32c>
     15c:	04 3b 0d 75 	l.jal ec3730 <_end+0xe3e904>
     160:	00 12 00 00 	l.j 480160 <_end+0x3fb334>
     164:	00 92 00 00 	l.j 2480164 <_end+0x23fb338>
     168:	00 0c 0d 76 	l.j 303740 <_end+0x27e914>
     16c:	00 1c 00 00 	l.j 70016c <_end+0x67b340>
     170:	00 92 00 00 	l.j 2480170 <_end+0x23fb344>
     174:	00 3a 09 63 	l.j e82700 <_end+0xdfd8d4>
     178:	00 04 bd 09 	l.j 12f59c <_end+0xaa770>
     17c:	00 00 00 7c 	l.j 36c <main+0x178>
     180:	00 00 00 80 	l.j 380 <main+0x18c>
     184:	09 75 75 00 	l.adrp r11,aea00000 <_end+0xae97b1d4>
     188:	04 be 0b 00 	l.jal 2f82d88 <_end+0x2efdf5c>
     18c:	00 01 0f 00 	l.j 43d8c <frameBuffer+0x3ef64>
     190:	00 00 9d 09 	l.j 275b4 <frameBuffer+0x2278c>
     194:	76 76 00 04 	l.cas r19,r22,r0,0x4
     198:	bf 0b 00 00 	*inconnu*
     19c:	01 0f 00 00 	l.j 43c019c <_end+0x433b370>
     1a0:	00 c0 09 77 	l.j 300277c <_end+0x2f7d950>
     1a4:	00 04 c0 0a 	l.j 1301cc <_end+0xab3a0>
     1a8:	00 00 00 92 	l.j 3f0 <main+0x1fc>
     1ac:	00 00 00 e3 	l.j 538 <allignment_exception_handler>
     1b0:	1c 00 00 04 	*inconnu*
     1b4:	3b 00 00 00 	*inconnu*
     1b8:	00 00 00 00 	l.j 1b8 <_exception_handler+0x128>
     1bc:	0c 01 04 c9 	l.bnf 414e0 <frameBuffer+0x3c6b8>
     1c0:	07 1d 00 00 	l.jal fc7401c0 <_end+0xfc6bb394>
     1c4:	04 5d 00 00 	l.jal 17401c4 <_end+0x16bb398>
     1c8:	01 08 0e 00 	l.j 42039c8 <_end+0x417eb9c>
     1cc:	00 04 55 0e 	l.j 115604 <_end+0x907d8>
     1d0:	00 00 04 4d 	l.j 1304 <_vsnprintf+0x1c0>
     1d4:	1e 00 00 00 	*inconnu*
     1d8:	43 07 00 00 	*inconnu*
     1dc:	04 66 07 00 	l.jal 1981ddc <_end+0x18fcfb0>
     1e0:	00 04 71 07 	l.j 11c5fc <_end+0x977d0>
     1e4:	00 00 04 7c 	l.j 13d4 <_vsnprintf+0x290>
     1e8:	01 00 00 04 	l.j 40001f8 <_end+0x3f7b3cc>
     1ec:	87 00 00 01 	l.lwz r24,1(r0)
     1f0:	28 01 00 00 	*inconnu*
     1f4:	04 92 00 00 	l.jal 24801f4 <_end+0x23fb3c8>
     1f8:	01 99 01 00 	l.j 66405f8 <_end+0x65bb7cc>
     1fc:	00 04 9d 00 	l.j 1275fc <_end+0xa27d0>
     200:	00 01 e6 01 	l.j 79a04 <frameBuffer+0x74bdc>
     204:	00 00 04 a8 	l.j 14a4 <_vsnprintf+0x360>
     208:	00 00 02 5e 	l.j b80 <_ntoa_format+0xc8>
     20c:	01 00 00 04 	l.j 400021c <_end+0x3f7b3f0>
     210:	b3 00 00 02 	l.muli r24,r0,2
     214:	c7 01 00 00 	*inconnu*
     218:	04 be 00 00 	l.jal 2f80218 <_end+0x2efb3ec>
     21c:	02 cf 01 00 	l.j fb3c061c <_end+0xfb33b7f0>
     220:	00 04 c9 00 	l.j 132620 <_end+0xad7f4>
     224:	00 03 0a 01 	l.j c2a28 <_end+0x3dbfc>
     228:	00 00 04 d4 	l.j 1578 <_vsnprintf+0x434>
     22c:	00 00 03 1b 	l.j e98 <_ntoa_long+0x70>
     230:	01 00 00 04 	l.j 4000240 <_end+0x3f7b414>
     234:	de 00 00 03 	l.sh -32765(r0),r0
     238:	2a 07 00 00 	*inconnu*
     23c:	04 e9 06 00 	l.jal 3a41a3c <_end+0x39bcc10>
     240:	00 04 f4 00 	l.j 13d240 <_end+0xb8414>
     244:	00 00 7f 00 	l.j 1fe44 <frameBuffer+0x1b01c>
     248:	00 02 5e 01 	l.j 97a4c <_end+0x12c20>
     24c:	00 00 04 f9 	l.j 1630 <_vsnprintf+0x4ec>
     250:	00 00 03 5c 	l.j fc0 <_ntoa_long_long+0x98>
     254:	01 00 00 05 	l.j 4000268 <_end+0x3f7b43c>
     258:	05 00 00 03 	l.jal 4000264 <_end+0x3f7b438>
     25c:	84 00 06 00 	l.lwz r0,1536(r0)
     260:	00 05 12 00 	l.j 144a60 <_end+0xbfc34>
     264:	00 00 89 00 	l.j 22664 <frameBuffer+0x1d83c>
     268:	00 02 ab 01 	l.j aae6c <_end+0x26040>
     26c:	00 00 05 17 	l.j 16c8 <_vsnprintf+0x584>
     270:	00 00 03 8b 	l.j 109c <_ntoa_long_long+0x174>
     274:	01 00 00 05 	l.j 4000288 <_end+0x3f7b45c>
     278:	23 00 00 03 	*inconnu*
     27c:	b1 01 00 00 	l.muli r8,r1,0
     280:	05 2f 00 00 	l.jal 4bc0280 <_end+0x4b3b454>
     284:	03 cd 01 00 	l.j ff340684 <_end+0xff2bb858>
     288:	00 05 3b 00 	l.j 14ee88 <_end+0xca05c>
     28c:	00 03 ea 01 	l.j faa90 <_end+0x75c64>
     290:	00 00 05 47 	l.j 17ac <_vsnprintf+0x668>
     294:	00 00 04 00 	l.j 1294 <_vsnprintf+0x150>
     298:	01 00 00 05 	l.j 40002ac <_end+0x3f7b480>
     29c:	53 00 00 04 	*inconnu*
     2a0:	16 01 00 00 	*inconnu*
     2a4:	05 5f 00 00 	l.jal 57c02a4 <_end+0x573b478>
     2a8:	04 25 00 06 	l.jal 9402c0 <_end+0x8bb494>
     2ac:	00 00 06 3e 	l.j 1ba4 <memcpy+0x18>
     2b0:	00 00 00 a3 	l.j 53c <allignment_exception_handler+0x4>
     2b4:	00 00 02 cb 	l.j de0 <_ntoa_format+0x328>
     2b8:	01 00 00 06 	l.j 40002d0 <_end+0x3f7b4a4>
     2bc:	43 00 00 04 	*inconnu*
     2c0:	3b 01 00 00 	*inconnu*
     2c4:	06 4f 00 00 	l.jal f93c02c4 <_end+0xf933b498>
     2c8:	04 51 00 06 	l.jal 14402e0 <_end+0x13bb4b4>
     2cc:	00 00 05 6c 	l.j 187c <_vsnprintf+0x738>
     2d0:	00 00 00 ae 	l.j 588 <system_call_handler+0x4>
     2d4:	00 00 02 eb 	l.j e80 <_ntoa_long+0x58>
     2d8:	01 00 00 05 	l.j 40002ec <_end+0x3f7b4c0>
     2dc:	71 00 00 04 	l.nios_rrr r8,r0,r0,0x4
     2e0:	67 01 00 00 	*inconnu*
     2e4:	05 7d 00 00 	l.jal 5f402e4 <_end+0x5ebb4b8>
     2e8:	04 6f 00 06 	l.jal 1bc0300 <_end+0x1b3b4d4>
     2ec:	00 00 05 e4 	l.j 1a7c <printf_+0x4>
     2f0:	00 00 00 b9 	l.j 5d4 <trap_handler+0x44>
     2f4:	00 00 03 38 	l.j fd4 <_ntoa_long_long+0xac>
     2f8:	01 00 00 05 	l.j 400030c <_end+0x3f7b4e0>
     2fc:	e9 00 00 04 	*inconnu*
     300:	7e 01 00 00 	*inconnu*
     304:	05 f5 00 00 	l.jal 7d40304 <_end+0x7cbb4d8>
     308:	04 95 01 00 	l.jal 2540708 <_end+0x24bb8dc>
     30c:	00 06 01 00 	l.j 18070c <_end+0xfb8e0>
     310:	00 04 b0 01 	l.j 12c314 <_end+0xa74e8>
     314:	00 00 06 0d 	l.j 1b48 <vsnprintf_+0x10>
     318:	00 00 04 cd 	l.j 164c <_vsnprintf+0x508>
     31c:	01 00 00 06 	l.j 4000334 <_end+0x3f7b508>
     320:	19 00 00 04 	l.movhi r8,0x4
     324:	e3 01 00 00 	l.add r24,r1,r0
     328:	06 25 00 00 	l.jal f8940328 <_end+0xf88bb4fc>
     32c:	05 00 01 00 	l.jal 400072c <_end+0x3f7b900>
     330:	00 06 31 00 	l.j 18c730 <_end+0x107904>
     334:	00 05 0f 00 	l.j 143f34 <_end+0xbf108>
     338:	06 00 00 06 	l.jal f8000350 <_end+0xf7f7b524>
     33c:	6e 00 00 00 	l.lwa r16,0(r0)
     340:	d3 00 00 03 	*inconnu*
     344:	ef 01 00 00 	*inconnu*
     348:	06 6f 00 00 	l.jal f9bc0348 <_end+0xf9b3b51c>
     34c:	05 25 01 00 	l.jal 494074c <_end+0x48bb920>
     350:	00 06 7a 00 	l.j 19eb50 <_end+0x119d24>
     354:	00 05 2d 06 	l.j 14b76c <_end+0xc6940>
     358:	00 00 06 85 	l.j 1d6c <memcpy+0x1e0>
     35c:	00 00 00 de 	l.j 6d4 <perf_cpu_freq+0x90>
     360:	00 00 03 a4 	l.j 11f0 <_vsnprintf+0xac>
     364:	01 00 00 06 	l.j 400037c <_end+0x3f7b550>
     368:	8a 00 00 05 	l.lws r16,5(r0)
     36c:	44 01 00 00 	*inconnu*
     370:	06 96 00 00 	l.jal fa580370 <_end+0xfa4fb544>
     374:	05 8c 01 00 	l.jal 6300774 <_end+0x627b948>
     378:	00 06 a2 00 	l.j 1a8b78 <_end+0x123d4c>
     37c:	00 05 af 01 	l.j 16bf80 <_end+0xe7154>
     380:	00 00 06 ae 	l.j 1e38 <uart_wait_rx+0x18>
     384:	00 00 05 d3 	l.j 1ad0 <sprintf_+0x28>
     388:	01 00 00 06 	l.j 40003a0 <_end+0x3f7b574>
     38c:	ba 00 00 05 	l.slli r16,r0,0x5
     390:	f0 01 00 00 	*inconnu*
     394:	06 c6 00 00 	l.jal fb180394 <_end+0xfb0fb568>
     398:	06 06 01 00 	l.jal f8180798 <_end+0xf80fb96c>
     39c:	00 06 d2 00 	l.j 1b4b9c <_end+0x12fd70>
     3a0:	00 06 23 00 	l.j 188fa0 <_end+0x104174>
     3a4:	0f 00 00 06 	l.bnf fc0003bc <_end+0xfbf7b590>
     3a8:	df 00 00 00 	l.sh -16384(r0),r0
     3ac:	fd 01 00 00 	*inconnu*
     3b0:	06 e4 00 00 	l.jal fb9003b0 <_end+0xfb87b584>
     3b4:	06 40 01 00 	l.jal f90007b4 <_end+0xf8f7b988>
     3b8:	00 06 f0 00 	l.j 1bc3b8 <_end+0x13758c>
     3bc:	00 06 48 01 	l.j 1923c0 <_end+0x10d594>
     3c0:	00 00 06 fc 	l.j 1fb0 <__udivdi3+0x8>
     3c4:	00 00 06 50 	l.j 1d04 <memcpy+0x178>
     3c8:	01 00 00 07 	l.j 40003e4 <_end+0x3f7b5b8>
     3cc:	08 00 00 06 	l.adrp r0,c000 <frameBuffer+0x71d8>
     3d0:	58 07 00 00 	*inconnu*
     3d4:	07 14 07 00 	l.jal fc501fd4 <_end+0xfc47d1a8>
     3d8:	00 07 20 01 	l.j 1c83dc <_end+0x1435b0>
     3dc:	00 00 07 2c 	l.j 208c <__udivdi3+0xe4>
     3e0:	00 00 06 60 	l.j 1d60 <memcpy+0x1d4>
     3e4:	01 00 00 07 	l.j 4000400 <_end+0x3f7b5d4>
     3e8:	38 00 00 06 	*inconnu*
     3ec:	a5 00 00 0f 	l.andi r8,r0,0xf
     3f0:	00 00 05 8a 	l.j 1a18 <_vsnprintf+0x8d4>
     3f4:	00 00 01 12 	l.j 83c <perf_cycles_to_time+0x11c>
     3f8:	01 00 00 05 	l.j 400040c <_end+0x3f7b5e0>
     3fc:	8f 00 00 06 	l.lbz r24,6(r0)
     400:	ad 01 00 00 	l.xori r8,r1,0
     404:	05 9b 00 00 	l.jal 66c0404 <_end+0x663b5d8>
     408:	06 bc 01 00 	l.jal faf00808 <_end+0xfae7b9dc>
     40c:	00 05 a7 00 	l.j 16a00c <_end+0xe51e0>
     410:	00 06 cb 01 	l.j 1b3014 <_end+0x12e1e8>
     414:	00 00 05 b3 	l.j 1ae0 <snprintf_+0x8>
     418:	00 00 06 ef 	l.j 1fd4 <__udivdi3+0x2c>
     41c:	01 00 00 05 	l.j 4000430 <_end+0x3f7b604>
     420:	bf 00 00 07 	*inconnu*
     424:	0c 01 00 00 	l.bnf 40424 <frameBuffer+0x3b5fc>
     428:	05 cb 00 00 	l.jal 72c0428 <_end+0x723b5fc>
     42c:	07 22 01 00 	l.jal fc88082c <_end+0xfc7fba00>
     430:	00 05 d7 00 	l.j 176030 <_end+0xf1204>
     434:	00 07 38 00 	l.j 1ce434 <_end+0x149608>
     438:	00 00 00 1f 	l.j 4b4 <main+0x2c0>
     43c:	00 00 01 6b 	l.j 9e8 <_putchar+0x8>
     440:	01 03 e3 01 	l.j 40f9044 <_end+0x4074218>
     444:	00 00 00 9d 	l.j 6b8 <perf_cpu_freq+0x74>
     448:	03 00 00 07 	l.j fc000464 <_end+0xfbf7b638>
     44c:	67 0b 6e 00 	*inconnu*
     450:	17 00 00 00 	*inconnu*
     454:	9d 0b 64 00 	l.addi r8,r11,25600
     458:	22 00 00 00 	l.msync
     45c:	9d 0b 72 70 	l.addi r8,r11,29296
     460:	00 2e 00 00 	l.j b80460 <_end+0xafb634>
     464:	07 67 03 6e 	l.jal fd9c121c <_end+0xfd93c3f0>
     468:	6e 00 03 e5 	l.lwa r16,997(r0)
     46c:	11 00 00 01 	l.bf 4000470 <_end+0x3f7b644>
     470:	1c 03 64 64 	*inconnu*
     474:	00 03 e6 11 	l.j f9cb8 <_end+0x74e8c>
     478:	00 00 01 1c 	l.j 8e8 <perf_cycles_to_time+0x1c8>
     47c:	03 72 72 00 	l.j fdc9cc7c <_end+0xfdc17e50>
     480:	03 e7 0b 00 	l.j ff9c3080 <_end+0xff93e254>
     484:	00 01 0f 03 	l.j 44090 <frameBuffer+0x3f268>
     488:	64 30 00 03 	*inconnu*
     48c:	e8 0a 00 00 	*inconnu*
     490:	00 87 03 64 	l.j 21c1220 <_end+0x213c3f4>
     494:	31 00 03 e8 	*inconnu*
     498:	0e 00 00 00 	l.bnf f8000498 <_end+0xf7f7b66c>
     49c:	87 03 6e 30 	l.lwz r24,28208(r3)
     4a0:	00 03 e8 12 	l.j fa4e8 <_end+0x756bc>
     4a4:	00 00 00 87 	l.j 6c0 <perf_cpu_freq+0x7c>
     4a8:	03 6e 31 00 	l.j fdb8c8a8 <_end+0xfdb07a7c>
     4ac:	03 e8 16 00 	l.j ffa05cac <_end+0xff980e80>
     4b0:	00 00 87 03 	l.j 220bc <frameBuffer+0x1d294>
     4b4:	6e 32 00 03 	l.lwa r17,3(r18)
     4b8:	e8 1a 00 00 	*inconnu*
     4bc:	00 87 03 71 	l.j 21c1280 <_end+0x213c454>
     4c0:	30 00 03 e9 	*inconnu*
     4c4:	0a 00 00 00 	l.adrp r16,0 <_error>
     4c8:	87 03 71 31 	l.lwz r24,28977(r3)
     4cc:	00 03 e9 0e 	l.j fa904 <_end+0x75ad8>
     4d0:	00 00 00 87 	l.j 6ec <perf_cpu_freq+0xa8>
     4d4:	03 62 00 03 	l.j fd8804e0 <_end+0xfd7fb6b4>
     4d8:	ea 0a 00 00 	*inconnu*
     4dc:	00 87 03 62 	l.j 21c1264 <_end+0x213c438>
     4e0:	6d 00 03 ea 	l.lwa r8,1002(r0)
     4e4:	0d 00 00 00 	l.bnf 40004e4 <_end+0x3f7b6b8>
     4e8:	87 03 77 77 	l.lwz r24,30583(r3)
     4ec:	00 04 b3 11 	l.j 12d130 <_end+0xa8304>
     4f0:	00 00 01 1c 	l.j 960 <perf_print_time+0x1c>
     4f4:	05 00 00 05 	l.jal 4000508 <_end+0x3f7b6dc>
     4f8:	12 02 00 00 	l.bf f80804f8 <_end+0xf7ffb6cc>
     4fc:	01 66 04 1a 	l.j 5981564 <_end+0x58fc738>
     500:	04 00 00 00 	l.jal 500 <assert_die+0x14>
     504:	87 03 5f 5f 	l.lwz r24,24415(r3)
     508:	61 00 04 1a 	*inconnu*
     50c:	04 00 00 00 	l.jal 50c <bus_error_handler+0x4>
     510:	87 00 05 00 	l.lwz r24,1280(r0)
     514:	00 05 6c 02 	l.j 15b51c <_end+0xd66f0>
     518:	00 00 00 25 	l.j 5ac <trap_handler+0x1c>
     51c:	04 26 04 00 	l.jal 98151c <_end+0x8fc6f0>
     520:	00 00 87 02 	l.j 22128 <frameBuffer+0x1d300>
     524:	00 00 00 20 	l.j 5a4 <trap_handler+0x14>
     528:	04 26 04 00 	l.jal 981528 <_end+0x8fc6fc>
     52c:	00 00 87 02 	l.j 22134 <frameBuffer+0x1d30c>
     530:	00 00 00 d0 	l.j 870 <perf_cycles_to_time+0x150>
     534:	04 26 04 00 	l.jal 981534 <_end+0x8fc708>
     538:	00 00 87 02 	l.j 22140 <frameBuffer+0x1d318>
     53c:	00 00 00 cb 	l.j 868 <perf_cycles_to_time+0x148>
     540:	04 26 04 00 	l.jal 981540 <_end+0x8fc714>
     544:	00 00 87 02 	l.j 2214c <frameBuffer+0x1d324>
     548:	00 00 01 85 	l.j b5c <_ntoa_format+0xa4>
     54c:	04 26 04 00 	l.jal 98154c <_end+0x8fc720>
     550:	00 00 87 02 	l.j 22158 <frameBuffer+0x1d330>
     554:	00 00 01 80 	l.j b54 <_ntoa_format+0x9c>
     558:	04 26 04 00 	l.jal 981558 <_end+0x8fc72c>
     55c:	00 00 87 03 	l.j 22168 <frameBuffer+0x1d340>
     560:	5f 5f 6d 00 	*inconnu*
     564:	04 26 04 00 	l.jal 981564 <_end+0x8fc738>
     568:	00 00 87 00 	l.j 22168 <frameBuffer+0x1d340>
     56c:	05 00 00 05 	l.jal 4000580 <_end+0x3f7b754>
     570:	8a 02 00 00 	l.lws r16,0(r2)
     574:	01 66 04 32 	l.j 598163c <_end+0x58fc810>
     578:	04 00 00 00 	l.jal 578 <range_exception_handler>
     57c:	87 03 5f 5f 	l.lwz r24,24415(r3)
     580:	61 00 04 32 	*inconnu*
     584:	04 00 00 00 	l.jal 584 <system_call_handler>
     588:	87 00 05 00 	l.lwz r24,1280(r0)
     58c:	00 05 e4 02 	l.j 179594 <_end+0xf4768>
     590:	00 00 00 25 	l.j 624 <trap_handler+0x94>
     594:	04 4b 08 00 	l.jal 12c2594 <_end+0x123d768>
     598:	00 00 87 02 	l.j 221a0 <frameBuffer+0x1d378>
     59c:	00 00 00 20 	l.j 61c <trap_handler+0x8c>
     5a0:	04 4b 08 00 	l.jal 12c25a0 <_end+0x123d774>
     5a4:	00 00 87 02 	l.j 221ac <frameBuffer+0x1d384>
     5a8:	00 00 00 d0 	l.j 8e8 <perf_cycles_to_time+0x1c8>
     5ac:	04 4b 08 00 	l.jal 12c25ac <_end+0x123d780>
     5b0:	00 00 87 02 	l.j 221b8 <frameBuffer+0x1d390>
     5b4:	00 00 00 cb 	l.j 8e0 <perf_cycles_to_time+0x1c0>
     5b8:	04 4b 08 00 	l.jal 12c25b8 <_end+0x123d78c>
     5bc:	00 00 87 02 	l.j 221c4 <frameBuffer+0x1d39c>
     5c0:	00 00 01 85 	l.j bd4 <_ntoa_format+0x11c>
     5c4:	04 4b 08 00 	l.jal 12c25c4 <_end+0x123d798>
     5c8:	00 00 87 02 	l.j 221d0 <frameBuffer+0x1d3a8>
     5cc:	00 00 01 80 	l.j bcc <_ntoa_format+0x114>
     5d0:	04 4b 08 00 	l.jal 12c25d0 <_end+0x123d7a4>
     5d4:	00 00 87 03 	l.j 221e0 <frameBuffer+0x1d3b8>
     5d8:	5f 5f 6d 00 	*inconnu*
     5dc:	04 4b 08 00 	l.jal 12c25dc <_end+0x123d7b0>
     5e0:	00 00 87 00 	l.j 221e0 <frameBuffer+0x1d3b8>
     5e4:	05 00 00 06 	l.jal 40005fc <_end+0x3f7b7d0>
     5e8:	3e 02 00 00 	*inconnu*
     5ec:	00 25 04 50 	l.j 94172c <_end+0x8bc900>
     5f0:	04 00 00 00 	l.jal 5f0 <trap_handler+0x60>
     5f4:	87 02 00 00 	l.lwz r24,0(r2)
     5f8:	00 20 04 50 	l.j 801738 <_end+0x77c90c>
     5fc:	04 00 00 00 	l.jal 5fc <trap_handler+0x6c>
     600:	87 02 00 00 	l.lwz r24,0(r2)
     604:	00 d0 04 50 	l.j 3401744 <_end+0x337c918>
     608:	04 00 00 00 	l.jal 608 <trap_handler+0x78>
     60c:	87 02 00 00 	l.lwz r24,0(r2)
     610:	00 cb 04 50 	l.j 32c1750 <_end+0x323c924>
     614:	04 00 00 00 	l.jal 614 <trap_handler+0x84>
     618:	87 02 00 00 	l.lwz r24,0(r2)
     61c:	01 85 04 50 	l.j 614175c <_end+0x60bc930>
     620:	04 00 00 00 	l.jal 620 <trap_handler+0x90>
     624:	87 02 00 00 	l.lwz r24,0(r2)
     628:	01 80 04 50 	l.j 6001768 <_end+0x5f7c93c>
     62c:	04 00 00 00 	l.jal 62c <trap_handler+0x9c>
     630:	87 03 5f 5f 	l.lwz r24,24415(r3)
     634:	6d 00 04 50 	l.lwa r8,1104(r0)
     638:	04 00 00 00 	l.jal 638 <break_point_handler>
     63c:	87 00 05 00 	l.lwz r24,1280(r0)
     640:	00 06 5c 02 	l.j 197648 <_end+0x11281c>
     644:	00 00 01 66 	l.j bdc <_ntoa_format+0x124>
     648:	04 73 04 00 	l.jal 1cc1648 <_end+0x1c3c81c>
     64c:	00 00 87 03 	l.j 22258 <frameBuffer+0x1d430>
     650:	5f 5f 61 00 	*inconnu*
     654:	04 73 04 00 	l.jal 1cc1654 <_end+0x1c3c828>
     658:	00 00 87 00 	l.j 22258 <frameBuffer+0x1d430>
     65c:	05 00 00 06 	l.jal 4000674 <_end+0x3f7b848>
     660:	6e 03 5f 5f 	l.lwa r16,24415(r3)
     664:	78 00 04 81 	*inconnu*
     668:	05 00 00 00 	l.jal 4000668 <_end+0x3f7b83c>
     66c:	87 00 10 03 	l.lwz r24,4099(r0)
     670:	6d 31 00 04 	l.lwa r9,4(r17)
     674:	91 0f 00 00 	l.lbs r8,0(r15)
     678:	00 87 03 6d 	l.j 21c142c <_end+0x213c600>
     67c:	30 00 04 91 	*inconnu*
     680:	13 00 00 00 	l.bf fc000680 <_end+0xfbf7b854>
     684:	87 05 00 00 	l.lwz r24,0(r5)
     688:	06 df 02 00 	l.jal fb7c0e88 <_end+0xfb73c05c>
     68c:	00 00 25 04 	l.j 9a9c <frameBuffer+0x4c74>
     690:	9c 08 00 00 	l.addi r0,r8,0
     694:	00 87 02 00 	l.j 21c0e94 <_end+0x213c068>
     698:	00 00 20 04 	l.j 86a8 <frameBuffer+0x3880>
     69c:	9c 08 00 00 	l.addi r0,r8,0
     6a0:	00 87 02 00 	l.j 21c0ea0 <_end+0x213c074>
     6a4:	00 00 d0 04 	l.j 346b4 <frameBuffer+0x2f88c>
     6a8:	9c 08 00 00 	l.addi r0,r8,0
     6ac:	00 87 02 00 	l.j 21c0eac <_end+0x213c080>
     6b0:	00 00 cb 04 	l.j 332c0 <frameBuffer+0x2e498>
     6b4:	9c 08 00 00 	l.addi r0,r8,0
     6b8:	00 87 02 00 	l.j 21c0eb8 <_end+0x213c08c>
     6bc:	00 01 85 04 	l.j 61acc <frameBuffer+0x5cca4>
     6c0:	9c 08 00 00 	l.addi r0,r8,0
     6c4:	00 87 02 00 	l.j 21c0ec4 <_end+0x213c098>
     6c8:	00 01 80 04 	l.j 606d8 <frameBuffer+0x5b8b0>
     6cc:	9c 08 00 00 	l.addi r0,r8,0
     6d0:	00 87 03 5f 	l.j 21c144c <_end+0x213c620>
     6d4:	5f 6d 00 04 	*inconnu*
     6d8:	9c 08 00 00 	l.addi r0,r8,0
     6dc:	00 87 00 05 	l.j 21c06f0 <_end+0x213b8c4>
     6e0:	00 00 07 45 	l.j 23f4 <__udivdi3+0x44c>
     6e4:	02 00 00 00 	l.j f80006e4 <_end+0xf7f7b8b8>
     6e8:	8b 04 9d 08 	l.lws r24,-25336(r4)
     6ec:	00 00 00 87 	l.j 908 <perf_print_cycles+0x1c>
     6f0:	02 00 00 00 	l.j f80006f0 <_end+0xf7f7b8c4>
     6f4:	90 04 9d 08 	l.lbs r0,-25336(r4)
     6f8:	00 00 00 87 	l.j 914 <perf_print_cycles+0x28>
     6fc:	02 00 00 00 	l.j f80006fc <_end+0xf7f7b8d0>
     700:	95 04 9d 08 	l.lhz r8,-25336(r4)
     704:	00 00 00 87 	l.j 920 <perf_print_cycles+0x34>
     708:	02 00 00 00 	l.j f8000708 <_end+0xf7f7b8dc>
     70c:	9a 04 9d 08 	l.lhs r16,-25336(r4)
     710:	00 00 00 87 	l.j 92c <perf_print_cycles+0x40>
     714:	02 00 00 01 	l.j f8000718 <_end+0xf7f7b8ec>
     718:	8f 04 9d 08 	l.lbz r24,-25336(r4)
     71c:	00 00 00 87 	l.j 938 <perf_print_cycles+0x4c>
     720:	02 00 00 00 	l.j f8000720 <_end+0xf7f7b8f4>
     724:	2f 04 9d 08 	*inconnu*
     728:	00 00 00 87 	l.j 944 <perf_print_time>
     72c:	02 00 00 01 	l.j f8000730 <_end+0xf7f7b904>
     730:	8a 04 9d 08 	l.lws r16,-25336(r4)
     734:	00 00 00 87 	l.j 950 <perf_print_time+0xc>
     738:	02 00 00 00 	l.j f8000738 <_end+0xf7f7b90c>
     73c:	2a 04 9d 08 	*inconnu*
     740:	00 00 00 87 	l.j 95c <perf_print_time+0x18>
     744:	00 05 00 00 	l.j 140744 <_end+0xbb918>
     748:	07 57 03 5f 	l.jal fd5c14c4 <_end+0xfd53c698>
     74c:	5f 78 00 04 	*inconnu*
     750:	a2 05 00 00 	l.addic r16,r5,0
     754:	00 87 00 10 	l.j 21c0794 <_end+0x213b968>
     758:	03 5f 5f 78 	l.j fd7d8538 <_end+0xfd75370c>
     75c:	00 04 aa 05 	l.j 12af70 <_end+0xa6144>
     760:	00 00 00 87 	l.j 97c <perf_print_time+0x38>
     764:	00 00 00 20 	l.j 7e4 <perf_cycles_to_time+0xc4>
     768:	04 00 00 00 	l.jal 768 <perf_cycles_to_time+0x48>
     76c:	9d 00 00 00 	l.addi r8,r0,0
     770:	07 9f 00 05 	l.jal fe7c0784 <_end+0xfe73b958>
     774:	01 04 00 00 	l.j 4100774 <_end+0x407b948>
     778:	01 b2 11 00 	l.j 6c84b78 <_end+0x6bffd4c>
     77c:	00 00 d5 1d 	l.j 35bf0 <frameBuffer+0x30dc8>
     780:	00 00 00 00 	l.j 780 <perf_cycles_to_time+0x60>
     784:	00 00 00 2f 	l.j 840 <perf_cycles_to_time+0x120>
     788:	00 00 00 00 	l.j 788 <perf_cycles_to_time+0x68>
     78c:	00 00 05 f0 	l.j 1f4c <vga_clear+0x4>
     790:	00 00 0e 95 	l.j 41e4 <__clz_tab+0x14fc>
     794:	04 08 07 00 	l.jal 202394 <_end+0x17d568>
     798:	00 00 4b 12 	l.j 133e0 <frameBuffer+0xe5b8>
     79c:	04 05 69 6e 	l.jal 15ad54 <_end+0xd5f28>
     7a0:	74 00 04 04 	*inconnu*
     7a4:	07 00 00 00 	l.jal fc0007a4 <_end+0xfbf7b978>
     7a8:	55 04 08 05 	*inconnu*
     7ac:	00 00 00 3d 	l.j 8a0 <perf_cycles_to_time+0x180>
     7b0:	04 08 04 00 	l.jal 2017b0 <_end+0x17c984>
     7b4:	00 00 71 04 	l.j 1cbc4 <frameBuffer+0x17d9c>
     7b8:	01 08 00 00 	l.j 42007b8 <_end+0x417b98c>
     7bc:	00 7d 04 01 	l.j 1f417c0 <_end+0x1ebc994>
     7c0:	06 00 00 00 	l.jal f80007c0 <_end+0xf7f7b994>
     7c4:	86 04 01 06 	l.lwz r16,262(r4)
     7c8:	00 00 00 7f 	l.j 9c4 <perf_print_time+0x80>
     7cc:	08 00 00 00 	l.adrp r0,0 <_error>
     7d0:	9f 7b 16 00 	l.addi r27,r27,5632
     7d4:	00 00 49 0a 	l.j 12bfc <frameBuffer+0xddd4>
     7d8:	00 00 00 5e 	l.j 950 <perf_print_time+0xc>
     7dc:	04 02 05 00 	l.jal 81bdc <frameBuffer+0x7cdb4>
     7e0:	00 00 16 04 	l.j 5ff0 <frameBuffer+0x11c8>
     7e4:	02 07 00 00 	l.j f81c07e4 <_end+0xf813b9b8>
     7e8:	00 b0 08 00 	l.j 2c027e8 <_end+0x2b7d9bc>
     7ec:	00 01 79 80 	l.j 5edec <frameBuffer+0x59fc4>
     7f0:	0f 00 00 00 	l.bnf fc0007f0 <_end+0xfbf7b9c4>
     7f4:	2d 08 00 00 	*inconnu*
     7f8:	01 78 81 16 	l.j 5e20c50 <_end+0x5d9be24>
     7fc:	00 00 00 34 	l.j 8cc <perf_cycles_to_time+0x1ac>
     800:	08 00 00 00 	l.adrp r0,0 <_error>
     804:	c4 84 0f 00 	*inconnu*
     808:	00 00 3b 08 	l.j f428 <frameBuffer+0xa600>
     80c:	00 00 00 c3 	l.j b18 <_ntoa_format+0x60>
     810:	85 16 00 00 	l.lwz r8,0(r22)
     814:	00 26 04 04 	l.j 981824 <_end+0x8fc9f8>
     818:	04 00 00 00 	l.jal 818 <perf_cycles_to_time+0xf8>
     81c:	10 04 08 03 	l.bf 102828 <_end+0x7d9fc>
     820:	00 00 00 08 	l.j 840 <perf_cycles_to_time+0x120>
     824:	04 08 04 00 	l.jal 201824 <_end+0x17c9f8>
     828:	00 00 76 04 	l.j 1e038 <frameBuffer+0x19210>
     82c:	10 03 00 00 	l.bf c082c <_end+0x3ba00>
     830:	01 57 13 00 	l.j 55c5430 <_end+0x5540604>
     834:	00 00 a7 08 	l.j 2a454 <frameBuffer+0x2562c>
     838:	02 01 ef 0a 	l.j f807c460 <_end+0xf7ff7634>
     83c:	00 00 00 ef 	l.j bf8 <_ntoa_format+0x140>
     840:	14 00 00 00 	*inconnu*
     844:	62 02 01 ef 	*inconnu*
     848:	1a 00 00 00 	l.movhi r16,0x0
     84c:	7c 00 15 6c 	*inconnu*
     850:	6f 77 00 02 	l.lwa r27,2(r23)
     854:	01 ef 20 00 	l.j 7bc8854 <_end+0x7b43a28>
     858:	00 00 7c 04 	l.j 1f868 <frameBuffer+0x1aa40>
     85c:	00 16 08 02 	l.j 582864 <_end+0x4fda38>
     860:	01 f8 09 00 	l.j 7e02c60 <_end+0x7d7de34>
     864:	00 01 0f 0c 	l.j 44494 <frameBuffer+0x3f66c>
     868:	73 00 01 fa 	l.nios_crr r24,r0,r0,0xfa
     86c:	13 00 00 00 	l.bf fc00086c <_end+0xfbf7ba40>
     870:	c4 0c 6c 6c 	*inconnu*
     874:	00 01 fb 0a 	l.j 7f49c <frameBuffer+0x7a674>
     878:	00 00 00 92 	l.j ac0 <_ntoa_format+0x8>
     87c:	00 17 00 00 	l.j 5c087c <_end+0x53ba50>
     880:	00 00 02 01 	l.j 1084 <_ntoa_long_long+0x15c>
     884:	fc 03 00 00 	*inconnu*
     888:	00 ef 0a 00 	l.j 3bc3088 <_end+0x3b3e25c>
     88c:	00 01 0f 18 	l.j 444ec <frameBuffer+0x3f6c4>
     890:	00 00 00 69 	l.j a34 <putchar+0x1c>
     894:	00 00 01 31 	l.j d58 <_ntoa_format+0x2a0>
     898:	19 00 00 00 	l.movhi r8,0x0
     89c:	34 ff 00 0a 	*inconnu*
     8a0:	00 00 01 21 	l.j d24 <_ntoa_format+0x26c>
     8a4:	1a 00 00 00 	l.movhi r16,0x0
     8a8:	67 02 02 06 	*inconnu*
     8ac:	16 00 00 01 	*inconnu*
     8b0:	31 1b 00 00 	*inconnu*
     8b4:	01 94 01 04 	l.j 6500cc4 <_end+0x647be98>
     8b8:	d3 01 00 00 	*inconnu*
     8bc:	00 92 00 00 	l.j 24808bc <_end+0x23fba90>
     8c0:	00 00 00 00 	l.j 8c0 <perf_cycles_to_time+0x1a0>
     8c4:	05 f0 01 9c 	l.jal 7c00f34 <_end+0x7b7c108>
     8c8:	00 00 04 70 	l.j 1a88 <printf_+0x10>
     8cc:	0d 75 00 12 	l.bnf 5d40914 <_end+0x5cbbae8>
     8d0:	00 00 00 92 	l.j b18 <_ntoa_format+0x60>
     8d4:	00 00 07 5a 	l.j 263c <__umoddi3+0xd8>
     8d8:	0d 76 00 1c 	l.bnf 5d80948 <_end+0x5cfbb1c>
     8dc:	00 00 00 92 	l.j b24 <_ntoa_format+0x6c>
     8e0:	00 00 07 88 	l.j 2700 <__umoddi3+0x19c>
     8e4:	09 63 00 04 	l.adrp r11,60008000 <_end+0x5ff831d4>
     8e8:	d5 09 00 00 	l.sw 16384(r9),r0
     8ec:	00 7c 00 00 	l.j 1f008ec <_end+0x1e7bac0>
     8f0:	07 ce 09 75 	l.jal ff382ec4 <_end+0xff2fe098>
     8f4:	75 00 04 d6 	*inconnu*
     8f8:	0b 00 00 01 	l.adrp r24,2000 <__udivdi3+0x58>
     8fc:	0f 00 00 07 	l.bnf fc000918 <_end+0xfbf7baec>
     900:	eb 09 76 76 	*inconnu*
     904:	00 04 d7 0b 	l.j 136530 <_end+0xb1704>
     908:	00 00 01 0f 	l.j d44 <_ntoa_format+0x28c>
     90c:	00 00 08 0e 	l.j 2944 <__umoddi3+0x3e0>
     910:	09 77 00 04 	l.adrp r11,e0008000 <_end+0xdff831d4>
     914:	d8 0a 00 00 	l.sb 0(r10),r0
     918:	00 92 00 00 	l.j 2480918 <_end+0x23fbaec>
     91c:	08 31 1c 00 	l.adrp r1,23800000 <_end+0x2377b1d4>
     920:	00 04 70 00 	l.j 11c920 <_end+0x97af4>
     924:	00 00 00 00 	l.j 924 <perf_print_cycles+0x38>
     928:	00 01 38 01 	l.j 4e92c <frameBuffer+0x49b04>
     92c:	04 e0 0a 1d 	l.jal 38031a0 <_end+0x377e374>
     930:	00 00 04 92 	l.j 1b78 <fctprintf+0x24>
     934:	00 00 08 4a 	l.j 2a5c <__umoddi3+0x4f8>
     938:	0e 00 00 04 	l.bnf f8000948 <_end+0xf7f7bb1c>
     93c:	8a 0e 00 00 	l.lws r16,0(r14)
     940:	04 82 1e 00 	l.jal 2088140 <_end+0x2003314>
     944:	00 01 38 05 	l.j 4e958 <frameBuffer+0x49b30>
     948:	00 00 04 9b 	l.j 1bb4 <memcpy+0x28>
     94c:	05 00 00 04 	l.jal 400095c <_end+0x3f7bb30>
     950:	a6 05 00 00 	l.andi r16,r5,0x0
     954:	04 b1 01 00 	l.jal 2c40d54 <_end+0x2bbbf28>
     958:	00 04 bc 00 	l.j 12f958 <_end+0xaab2c>
     95c:	00 08 6e 01 	l.j 21c160 <_end+0x197334>
     960:	00 00 04 c7 	l.j 1c7c <memcpy+0xf0>
     964:	00 00 08 c2 	l.j 2c6c <__umoddi3+0x708>
     968:	01 00 00 04 	l.j 4000978 <_end+0x3f7bb4c>
     96c:	d2 00 00 08 	*inconnu*
     970:	f3 01 00 00 	*inconnu*
     974:	04 dd 00 00 	l.jal 3740974 <_end+0x36bbb48>
     978:	09 6a 01 00 	l.adrp r11,40200000 <_end+0x4017b1d4>
     97c:	00 04 e8 00 	l.j 13a97c <_end+0xb5b50>
     980:	00 0a 03 01 	l.j 281584 <_end+0x1fc758>
     984:	00 00 04 f3 	l.j 1d50 <memcpy+0x1c4>
     988:	00 00 0a 0b 	l.j 31b4 <__clz_tab+0x4cc>
     98c:	01 00 00 04 	l.j 400099c <_end+0x3f7bb70>
     990:	fe 00 00 0a 	*inconnu*
     994:	24 01 00 00 	*inconnu*
     998:	05 09 00 00 	l.jal 4240998 <_end+0x41bbb6c>
     99c:	0a 45 01 00 	l.adrp r18,a0200000 <_end+0xa017b1d4>
     9a0:	00 05 13 00 	l.j 1455a0 <_end+0xc0774>
     9a4:	00 0a 62 05 	l.j 2991b8 <_end+0x21438c>
     9a8:	00 00 05 1e 	l.j 1e20 <uart_wait_rx>
     9ac:	07 00 00 05 	l.jal fc0009c0 <_end+0xfbf7bb94>
     9b0:	29 00 00 01 	*inconnu*
     9b4:	6a 00 00 02 	*inconnu*
     9b8:	5e 01 00 00 	*inconnu*
     9bc:	05 2e 00 00 	l.jal 4b809bc <_end+0x4afbb90>
     9c0:	0a 8d 01 00 	l.adrp r20,a0200000 <_end+0xa017b1d4>
     9c4:	00 05 3a 00 	l.j 14f1c4 <_end+0xca398>
     9c8:	00 0a 9b 00 	l.j 2a75c8 <_end+0x22279c>
     9cc:	0f 00 00 05 	l.bnf fc0009e0 <_end+0xfbf7bbb4>
     9d0:	47 00 00 00 	*inconnu*
     9d4:	00 00 00 00 	l.j 9d4 <perf_print_time+0x90>
     9d8:	50 00 00 02 	*inconnu*
     9dc:	a3 01 00 00 	l.addic r24,r1,0
     9e0:	05 4c 00 00 	l.jal 53009e0 <_end+0x527bbb4>
     9e4:	0a a2 01 00 	l.adrp r21,40200000 <_end+0x4017b1d4>
     9e8:	00 05 58 00 	l.j 1569e8 <_end+0xd1bbc>
     9ec:	00 0a aa 05 	l.j 2ab200 <_end+0x2263d4>
     9f0:	00 00 05 64 	l.j 1f80 <vga_puts+0x8>
     9f4:	05 00 00 05 	l.jal 4000a08 <_end+0x3f7bbdc>
     9f8:	70 01 00 00 	l.nios_rrr r0,r1,r0,0x0
     9fc:	05 7c 00 00 	l.jal 5f009fc <_end+0x5e7bbd0>
     a00:	0a b2 05 00 	l.adrp r21,40a00000 <_end+0x4097b1d4>
     a04:	00 05 88 01 	l.j 162a08 <_end+0xddbdc>
     a08:	00 00 05 94 	l.j 2058 <__udivdi3+0xb0>
     a0c:	00 00 0a c1 	l.j 3510 <__clz_tab+0x828>
     a10:	00 07 00 00 	l.j 1c0a10 <_end+0x13bbe4>
     a14:	06 73 00 00 	l.jal f9cc0a14 <_end+0xf9c3bbe8>
     a18:	01 74 00 00 	l.j 5d00a18 <_end+0x5c7bbec>
     a1c:	02 c3 01 00 	l.j fb0c0e1c <_end+0xfb03bff0>
     a20:	00 06 78 00 	l.j 19ea20 <_end+0x119bf4>
     a24:	00 0a c9 01 	l.j 2b2e28 <_end+0x22dffc>
     a28:	00 00 06 84 	l.j 2438 <__udivdi3+0x490>
     a2c:	00 00 0a df 	l.j 35a8 <__clz_tab+0x8c0>
     a30:	00 07 00 00 	l.j 1c0a30 <_end+0x13bc04>
     a34:	06 91 00 00 	l.jal fa440a34 <_end+0xfa3bbc08>
     a38:	01 7f 00 00 	l.j 5fc0a38 <_end+0x5f3bc0c>
     a3c:	02 da 01 00 	l.j fb680e3c <_end+0xfb5fc010>
     a40:	00 06 96 00 	l.j 1a6240 <_end+0x121414>
     a44:	00 0a f5 00 	l.j 2bde44 <_end+0x239018>
     a48:	07 00 00 05 	l.jal fc000a5c <_end+0xfbf7bc30>
     a4c:	a1 00 00 01 	l.addic r8,r0,1
     a50:	94 00 00 02 	l.lhz r0,2(r0)
     a54:	fa 01 00 00 	*inconnu*
     a58:	05 a6 00 00 	l.jal 6980a58 <_end+0x68fbc2c>
     a5c:	0b 10 01 00 	l.adrp r24,200000 <_end+0x17b1d4>
     a60:	00 05 b2 00 	l.j 16d260 <_end+0xe8434>
     a64:	00 0b 18 00 	l.j 2c6a64 <_end+0x241c38>
     a68:	07 00 00 06 	l.jal fc000a80 <_end+0xfbf7bc54>
     a6c:	19 00 00 01 	l.movhi r8,0x1
     a70:	9f 00 00 03 	l.addi r24,r0,3
     a74:	3f 01 00 00 	*inconnu*
     a78:	06 1e 00 00 	l.jal f8780a78 <_end+0xf86fbc4c>
     a7c:	0b 20 01 00 	l.adrp r25,200000 <_end+0x17b1d4>
     a80:	00 06 2a 00 	l.j 18b280 <_end+0x106454>
     a84:	00 0b 37 05 	l.j 2ce698 <_end+0x24986c>
     a88:	00 00 06 36 	l.j 2360 <__udivdi3+0x3b8>
     a8c:	05 00 00 06 	l.jal 4000aa4 <_end+0x3f7bc78>
     a90:	42 01 00 00 	*inconnu*
     a94:	06 4e 00 00 	l.jal f9380a94 <_end+0xf92fbc68>
     a98:	0b 52 01 00 	l.adrp r26,40200000 <_end+0x4017b1d4>
     a9c:	00 06 5a 00 	l.j 19729c <_end+0x112470>
     aa0:	00 0b 68 01 	l.j 2daaa4 <_end+0x255c78>
     aa4:	00 00 06 66 	l.j 243c <__udivdi3+0x494>
     aa8:	00 00 0b 77 	l.j 3884 <__clz_tab+0xb9c>
     aac:	00 07 00 00 	l.j 1c0aac <_end+0x13bc80>
     ab0:	05 bf 00 00 	l.jal 6fc0ab0 <_end+0x6f3bc84>
     ab4:	01 b4 00 00 	l.j 6d00ab4 <_end+0x6c7bc88>
     ab8:	03 84 01 00 	l.j fe100eb8 <_end+0xfe07c08c>
     abc:	00 05 c4 00 	l.j 171abc <_end+0xecc90>
     ac0:	00 0b 8d 01 	l.j 2e3ec4 <_end+0x25f098>
     ac4:	00 00 05 d0 	l.j 2204 <__udivdi3+0x25c>
     ac8:	00 00 0b 95 	l.j 391c <__clz_tab+0xc34>
     acc:	05 00 00 05 	l.jal 4000ae0 <_end+0x3f7bcb4>
     ad0:	dc 05 00 00 	l.sh 0(r5),r0
     ad4:	05 e8 01 00 	l.jal 7a00ed4 <_end+0x797c0a8>
     ad8:	00 05 f4 00 	l.j 17dad8 <_end+0xf8cac>
     adc:	00 0b 9d 01 	l.j 2e7ee0 <_end+0x2630b4>
     ae0:	00 00 06 00 	l.j 22e0 <__udivdi3+0x338>
     ae4:	00 00 0b a5 	l.j 3978 <__clz_tab+0xc90>
     ae8:	01 00 00 06 	l.j 4000b00 <_end+0x3f7bcd4>
     aec:	0c 00 00 0b 	l.bnf b18 <_ntoa_format+0x60>
     af0:	b4 00 1f 00 	l.mfspr r0,r0,0x1f00
     af4:	00 06 a3 00 	l.j 1a96f4 <_end+0x1248c8>
     af8:	00 01 ce 01 	l.j 742fc <frameBuffer+0x6f4d4>
     afc:	00 00 06 a4 	l.j 258c <__umoddi3+0x28>
     b00:	00 00 0b c3 	l.j 3a0c <__clz_tab+0xd24>
     b04:	01 00 00 06 	l.j 4000b1c <_end+0x3f7bcf0>
     b08:	af 00 00 0b 	l.xori r24,r0,11
     b0c:	d9 07 00 00 	l.sb 16384(r7),r0
     b10:	06 ba 00 00 	l.jal fae80b10 <_end+0xfadfbce4>
     b14:	01 d9 00 00 	l.j 7640b14 <_end+0x75bbce8>
     b18:	03 ec 01 00 	l.j ffb00f18 <_end+0xffa7c0ec>
     b1c:	00 06 bf 00 	l.j 1b071c <_end+0x12b8f0>
     b20:	00 0b ef 01 	l.j 2fc724 <_end+0x2778f8>
     b24:	00 00 06 cb 	l.j 2650 <__umoddi3+0xec>
     b28:	00 00 0c 5a 	l.j 3c90 <__clz_tab+0xfa8>
     b2c:	01 00 00 06 	l.j 4000b44 <_end+0x3f7bd18>
     b30:	d7 00 00 0c 	l.sw -16372(r0),r0
     b34:	83 01 00 00 	*inconnu*
     b38:	06 e3 00 00 	l.jal fb8c0b38 <_end+0xfb83bd0c>
     b3c:	0c a7 01 00 	l.bnf 29c0f3c <_end+0x293c110>
     b40:	00 06 ef 00 	l.j 1bc740 <_end+0x137914>
     b44:	00 0c c4 01 	l.j 331b48 <_end+0x2acd1c>
     b48:	00 00 06 fb 	l.j 2734 <__umoddi3+0x1d0>
     b4c:	00 00 0c e8 	l.j 3eec <__clz_tab+0x1204>
     b50:	01 00 00 07 	l.j 4000b6c <_end+0x3f7bd40>
     b54:	07 00 00 0d 	l.jal fc000b88 <_end+0xfbf7bd5c>
     b58:	1a 00 07 00 	l.movhi r16,0x700
     b5c:	00 07 14 00 	l.j 1c5b5c <_end+0x140d30>
     b60:	00 01 f8 00 	l.j 7eb60 <frameBuffer+0x79d38>
     b64:	00 04 3a 01 	l.j 10f368 <_end+0x8a53c>
     b68:	00 00 07 19 	l.j 27cc <__umoddi3+0x268>
     b6c:	00 00 0d 3e 	l.j 4064 <__clz_tab+0x137c>
     b70:	01 00 00 07 	l.j 4000b8c <_end+0x3f7bd60>
     b74:	25 00 00 0d 	*inconnu*
     b78:	46 01 00 00 	*inconnu*
     b7c:	07 31 00 00 	l.jal fcc40b7c <_end+0xfcbbbd50>
     b80:	0d 4e 01 00 	l.bnf 5380f80 <_end+0x52fc154>
     b84:	00 07 3d 00 	l.j 1cff84 <_end+0x14b158>
     b88:	00 0d 56 05 	l.j 35639c <_end+0x2d1570>
     b8c:	00 00 07 49 	l.j 28b0 <__umoddi3+0x34c>
     b90:	01 00 00 07 	l.j 4000bac <_end+0x3f7bd80>
     b94:	55 00 00 0d 	*inconnu*
     b98:	5e 05 00 00 	*inconnu*
     b9c:	07 61 01 00 	l.jal fd840f9c <_end+0xfd7bc170>
     ba0:	00 07 6d 00 	l.j 1dbfa0 <_end+0x157174>
     ba4:	00 0d 79 00 	l.j 35efa4 <_end+0x2da178>
     ba8:	0f 00 00 07 	l.bnf fc000bc4 <_end+0xfbf7bd98>
     bac:	8c 00 00 00 	l.lbz r0,0(r0)
     bb0:	00 00 00 00 	l.j bb0 <_ntoa_format+0xf8>
     bb4:	1c 00 00 04 	*inconnu*
     bb8:	55 01 00 00 	*inconnu*
     bbc:	07 8d 00 00 	l.jal fe340bbc <_end+0xfe2bbd90>
     bc0:	0d 88 00 20 	l.bnf 6200c40 <_end+0x617be14>
     bc4:	00 00 07 7a 	l.j 29ac <__umoddi3+0x448>
     bc8:	00 00 00 00 	l.j bc8 <_ntoa_format+0x110>
     bcc:	00 00 00 18 	l.j c2c <_ntoa_format+0x174>
     bd0:	01 00 00 07 	l.j 4000bec <_end+0x3f7bdc0>
     bd4:	7f 00 00 0d 	*inconnu*
     bd8:	90 00 00 00 	l.lbs r0,0(r0)
     bdc:	00 00 21 00 	l.j 8fdc <frameBuffer+0x41b4>
     be0:	00 01 6b 01 	l.j 5b7e4 <frameBuffer+0x569bc>
     be4:	03 e3 01 00 	l.j ff8c0fe4 <_end+0xff83c1b8>
     be8:	00 00 9d 03 	l.j 27ff4 <frameBuffer+0x231cc>
     bec:	00 00 07 9c 	l.j 2a5c <__umoddi3+0x4f8>
     bf0:	0b 6e 00 17 	l.adrp r27,c002e000 <_end+0xbffa91d4>
     bf4:	00 00 00 9d 	l.j e68 <_ntoa_long+0x40>
     bf8:	0b 64 00 22 	l.adrp r27,80044000 <_end+0x7ffbf1d4>
     bfc:	00 00 00 9d 	l.j e70 <_ntoa_long+0x48>
     c00:	0b 72 70 00 	l.adrp r27,4e000000 <_end+0x4df7b1d4>
     c04:	2e 00 00 07 	*inconnu*
     c08:	9c 03 6e 6e 	l.addi r0,r3,28270
     c0c:	00 03 e5 11 	l.j fa050 <_end+0x75224>
     c10:	00 00 01 1c 	l.j 1080 <_ntoa_long_long+0x158>
     c14:	03 64 64 00 	l.j fd919c14 <_end+0xfd894de8>
     c18:	03 e6 11 00 	l.j ff985018 <_end+0xff9001ec>
     c1c:	00 01 1c 03 	l.j 47c28 <frameBuffer+0x42e00>
     c20:	72 72 00 03 	l.nios_rrr r19,r18,r0,0x3
     c24:	e7 0b 00 00 	*inconnu*
     c28:	01 0f 03 64 	l.j 43c19b8 <_end+0x433cb8c>
     c2c:	30 00 03 e8 	*inconnu*
     c30:	0a 00 00 00 	l.adrp r16,0 <_error>
     c34:	87 03 64 31 	l.lwz r24,25649(r3)
     c38:	00 03 e8 0e 	l.j fac70 <_end+0x75e44>
     c3c:	00 00 00 87 	l.j e58 <_ntoa_long+0x30>
     c40:	03 6e 30 00 	l.j fdb8cc40 <_end+0xfdb07e14>
     c44:	03 e8 12 00 	l.j ffa05444 <_end+0xff980618>
     c48:	00 00 87 03 	l.j 22854 <frameBuffer+0x1da2c>
     c4c:	6e 31 00 03 	l.lwa r17,3(r17)
     c50:	e8 16 00 00 	*inconnu*
     c54:	00 87 03 6e 	l.j 21c1a0c <_end+0x213cbe0>
     c58:	32 00 03 e8 	*inconnu*
     c5c:	1a 00 00 00 	l.movhi r16,0x0
     c60:	87 03 71 30 	l.lwz r24,28976(r3)
     c64:	00 03 e9 0a 	l.j fb08c <_end+0x76260>
     c68:	00 00 00 87 	l.j e84 <_ntoa_long+0x5c>
     c6c:	03 71 31 00 	l.j fdc4d06c <_end+0xfdbc8240>
     c70:	03 e9 0e 00 	l.j ffa44470 <_end+0xff9bf644>
     c74:	00 00 87 03 	l.j 22880 <frameBuffer+0x1da58>
     c78:	62 00 03 ea 	*inconnu*
     c7c:	0a 00 00 00 	l.adrp r16,0 <_error>
     c80:	87 03 62 6d 	l.lwz r24,25197(r3)
     c84:	00 03 ea 0d 	l.j fb4b8 <_end+0x7668c>
     c88:	00 00 00 87 	l.j ea4 <_ntoa_long+0x7c>
     c8c:	03 77 77 00 	l.j fddde88c <_end+0xfdd59a60>
     c90:	04 b3 11 00 	l.jal 2cc5090 <_end+0x2c40264>
     c94:	00 01 1c 06 	l.j 47cac <frameBuffer+0x42e84>
     c98:	00 00 05 47 	l.j 21b4 <__udivdi3+0x20c>
     c9c:	02 00 00 01 	l.j f8000ca0 <_end+0xf7f7be74>
     ca0:	66 04 1a 04 	*inconnu*
     ca4:	00 00 00 87 	l.j ec0 <_ntoa_long+0x98>
     ca8:	03 5f 5f 61 	l.j fd7d8a2c <_end+0xfd753c00>
     cac:	00 04 1a 04 	l.j 1074bc <_end+0x82690>
     cb0:	00 00 00 87 	l.j ecc <_ntoa_long+0xa4>
     cb4:	00 06 00 00 	l.j 180cb4 <_end+0xfbe88>
     cb8:	05 a1 02 00 	l.jal 68414b8 <_end+0x67bc68c>
     cbc:	00 00 25 04 	l.j a0cc <frameBuffer+0x52a4>
     cc0:	26 04 00 00 	*inconnu*
     cc4:	00 87 02 00 	l.j 21c14c4 <_end+0x213c698>
     cc8:	00 00 20 04 	l.j 8cd8 <frameBuffer+0x3eb0>
     ccc:	26 04 00 00 	*inconnu*
     cd0:	00 87 02 00 	l.j 21c14d0 <_end+0x213c6a4>
     cd4:	00 00 d0 04 	l.j 34ce4 <frameBuffer+0x2febc>
     cd8:	26 04 00 00 	*inconnu*
     cdc:	00 87 02 00 	l.j 21c14dc <_end+0x213c6b0>
     ce0:	00 00 cb 04 	l.j 338f0 <frameBuffer+0x2eac8>
     ce4:	26 04 00 00 	*inconnu*
     ce8:	00 87 02 00 	l.j 21c14e8 <_end+0x213c6bc>
     cec:	00 01 85 04 	l.j 620fc <frameBuffer+0x5d2d4>
     cf0:	26 04 00 00 	*inconnu*
     cf4:	00 87 02 00 	l.j 21c14f4 <_end+0x213c6c8>
     cf8:	00 01 80 04 	l.j 60d08 <frameBuffer+0x5bee0>
     cfc:	26 04 00 00 	*inconnu*
     d00:	00 87 03 5f 	l.j 21c1a7c <_end+0x213cc50>
     d04:	5f 6d 00 04 	*inconnu*
     d08:	26 04 00 00 	*inconnu*
     d0c:	00 87 00 06 	l.j 21c0d24 <_end+0x213bef8>
     d10:	00 00 05 bf 	l.j 240c <__udivdi3+0x464>
     d14:	02 00 00 01 	l.j f8000d18 <_end+0xf7f7beec>
     d18:	66 04 32 04 	*inconnu*
     d1c:	00 00 00 87 	l.j f38 <_ntoa_long_long+0x10>
     d20:	03 5f 5f 61 	l.j fd7d8aa4 <_end+0xfd753c78>
     d24:	00 04 32 04 	l.j 10d534 <_end+0x88708>
     d28:	00 00 00 87 	l.j f44 <_ntoa_long_long+0x1c>
     d2c:	00 06 00 00 	l.j 180d2c <_end+0xfbf00>
     d30:	06 19 02 00 	l.jal f8641530 <_end+0xf85bc704>
     d34:	00 00 25 04 	l.j a144 <frameBuffer+0x531c>
     d38:	4b 08 00 00 	*inconnu*
     d3c:	00 87 02 00 	l.j 21c153c <_end+0x213c710>
     d40:	00 00 20 04 	l.j 8d50 <frameBuffer+0x3f28>
     d44:	4b 08 00 00 	*inconnu*
     d48:	00 87 02 00 	l.j 21c1548 <_end+0x213c71c>
     d4c:	00 00 d0 04 	l.j 34d5c <frameBuffer+0x2ff34>
     d50:	4b 08 00 00 	*inconnu*
     d54:	00 87 02 00 	l.j 21c1554 <_end+0x213c728>
     d58:	00 00 cb 04 	l.j 33968 <frameBuffer+0x2eb40>
     d5c:	4b 08 00 00 	*inconnu*
     d60:	00 87 02 00 	l.j 21c1560 <_end+0x213c734>
     d64:	00 01 85 04 	l.j 62174 <frameBuffer+0x5d34c>
     d68:	4b 08 00 00 	*inconnu*
     d6c:	00 87 02 00 	l.j 21c156c <_end+0x213c740>
     d70:	00 01 80 04 	l.j 60d80 <frameBuffer+0x5bf58>
     d74:	4b 08 00 00 	*inconnu*
     d78:	00 87 03 5f 	l.j 21c1af4 <_end+0x213ccc8>
     d7c:	5f 6d 00 04 	*inconnu*
     d80:	4b 08 00 00 	*inconnu*
     d84:	00 87 00 06 	l.j 21c0d9c <_end+0x213bf70>
     d88:	00 00 06 73 	l.j 2754 <__umoddi3+0x1f0>
     d8c:	02 00 00 00 	l.j f8000d8c <_end+0xf7f7bf60>
     d90:	25 04 50 04 	*inconnu*
     d94:	00 00 00 87 	l.j fb0 <_ntoa_long_long+0x88>
     d98:	02 00 00 00 	l.j f8000d98 <_end+0xf7f7bf6c>
     d9c:	20 04 50 04 	*inconnu*
     da0:	00 00 00 87 	l.j fbc <_ntoa_long_long+0x94>
     da4:	02 00 00 00 	l.j f8000da4 <_end+0xf7f7bf78>
     da8:	d0 04 50 04 	*inconnu*
     dac:	00 00 00 87 	l.j fc8 <_ntoa_long_long+0xa0>
     db0:	02 00 00 00 	l.j f8000db0 <_end+0xf7f7bf84>
     db4:	cb 04 50 04 	*inconnu*
     db8:	00 00 00 87 	l.j fd4 <_ntoa_long_long+0xac>
     dbc:	02 00 00 01 	l.j f8000dc0 <_end+0xf7f7bf94>
     dc0:	85 04 50 04 	l.lwz r8,20484(r4)
     dc4:	00 00 00 87 	l.j fe0 <_ntoa_long_long+0xb8>
     dc8:	02 00 00 01 	l.j f8000dcc <_end+0xf7f7bfa0>
     dcc:	80 04 50 04 	*inconnu*
     dd0:	00 00 00 87 	l.j fec <_ntoa_long_long+0xc4>
     dd4:	03 5f 5f 6d 	l.j fd7d8b88 <_end+0xfd753d5c>
     dd8:	00 04 50 04 	l.j 114de8 <_end+0x8ffbc>
     ddc:	00 00 00 87 	l.j ff8 <_ntoa_long_long+0xd0>
     de0:	00 06 00 00 	l.j 180de0 <_end+0xfbfb4>
     de4:	06 91 02 00 	l.jal fa4415e4 <_end+0xfa3bc7b8>
     de8:	00 01 66 04 	l.j 5a5f8 <frameBuffer+0x557d0>
     dec:	73 04 00 00 	l.nios_rrr r24,r4,r0,0x0
     df0:	00 87 03 5f 	l.j 21c1b6c <_end+0x213cd40>
     df4:	5f 61 00 04 	*inconnu*
     df8:	73 04 00 00 	l.nios_rrr r24,r4,r0,0x0
     dfc:	00 87 00 06 	l.j 21c0e14 <_end+0x213bfe8>
     e00:	00 00 06 a3 	l.j 288c <__umoddi3+0x328>
     e04:	03 5f 5f 78 	l.j fd7d8be4 <_end+0xfd753db8>
     e08:	00 04 81 05 	l.j 12121c <_end+0x9c3f0>
     e0c:	00 00 00 87 	l.j 1028 <_ntoa_long_long+0x100>
     e10:	00 10 03 6d 	l.j 401bc4 <_end+0x37cd98>
     e14:	31 00 04 91 	*inconnu*
     e18:	0f 00 00 00 	l.bnf fc000e18 <_end+0xfbf7bfec>
     e1c:	87 03 6d 30 	l.lwz r24,27952(r3)
     e20:	00 04 91 13 	l.j 12526c <_end+0xa0440>
     e24:	00 00 00 87 	l.j 1040 <_ntoa_long_long+0x118>
     e28:	06 00 00 07 	l.jal f8000e44 <_end+0xf7f7c018>
     e2c:	14 02 00 00 	*inconnu*
     e30:	00 25 04 9c 	l.j 9420a0 <_end+0x8bd274>
     e34:	08 00 00 00 	l.adrp r0,0 <_error>
     e38:	87 02 00 00 	l.lwz r24,0(r2)
     e3c:	00 20 04 9c 	l.j 8020ac <_end+0x77d280>
     e40:	08 00 00 00 	l.adrp r0,0 <_error>
     e44:	87 02 00 00 	l.lwz r24,0(r2)
     e48:	00 d0 04 9c 	l.j 34020b8 <_end+0x337d28c>
     e4c:	08 00 00 00 	l.adrp r0,0 <_error>
     e50:	87 02 00 00 	l.lwz r24,0(r2)
     e54:	00 cb 04 9c 	l.j 32c20c4 <_end+0x323d298>
     e58:	08 00 00 00 	l.adrp r0,0 <_error>
     e5c:	87 02 00 00 	l.lwz r24,0(r2)
     e60:	01 85 04 9c 	l.j 61420d0 <_end+0x60bd2a4>
     e64:	08 00 00 00 	l.adrp r0,0 <_error>
     e68:	87 02 00 00 	l.lwz r24,0(r2)
     e6c:	01 80 04 9c 	l.j 60020dc <_end+0x5f7d2b0>
     e70:	08 00 00 00 	l.adrp r0,0 <_error>
     e74:	87 03 5f 5f 	l.lwz r24,24415(r3)
     e78:	6d 00 04 9c 	l.lwa r8,1180(r0)
     e7c:	08 00 00 00 	l.adrp r0,0 <_error>
     e80:	87 00 06 00 	l.lwz r24,1536(r0)
     e84:	00 07 7a 02 	l.j 1df68c <_end+0x15a860>
     e88:	00 00 00 8b 	l.j 10b4 <_ntoa_long_long+0x18c>
     e8c:	04 9d 08 00 	l.jal 2742e8c <_end+0x26be060>
     e90:	00 00 87 02 	l.j 22a98 <frameBuffer+0x1dc70>
     e94:	00 00 00 90 	l.j 10d4 <_ntoa_long_long+0x1ac>
     e98:	04 9d 08 00 	l.jal 2742e98 <_end+0x26be06c>
     e9c:	00 00 87 02 	l.j 22aa4 <frameBuffer+0x1dc7c>
     ea0:	00 00 00 95 	l.j 10f4 <_out_char+0xc>
     ea4:	04 9d 08 00 	l.jal 2742ea4 <_end+0x26be078>
     ea8:	00 00 87 02 	l.j 22ab0 <frameBuffer+0x1dc88>
     eac:	00 00 00 9a 	l.j 1114 <_out_fct>
     eb0:	04 9d 08 00 	l.jal 2742eb0 <_end+0x26be084>
     eb4:	00 00 87 02 	l.j 22abc <frameBuffer+0x1dc94>
     eb8:	00 00 01 8f 	l.j 14f4 <_vsnprintf+0x3b0>
     ebc:	04 9d 08 00 	l.jal 2742ebc <_end+0x26be090>
     ec0:	00 00 87 02 	l.j 22ac8 <frameBuffer+0x1dca0>
     ec4:	00 00 00 2f 	l.j f80 <_ntoa_long_long+0x58>
     ec8:	04 9d 08 00 	l.jal 2742ec8 <_end+0x26be09c>
     ecc:	00 00 87 02 	l.j 22ad4 <frameBuffer+0x1dcac>
     ed0:	00 00 01 8a 	l.j 14f8 <_vsnprintf+0x3b4>
     ed4:	04 9d 08 00 	l.jal 2742ed4 <_end+0x26be0a8>
     ed8:	00 00 87 02 	l.j 22ae0 <frameBuffer+0x1dcb8>
     edc:	00 00 00 2a 	l.j f84 <_ntoa_long_long+0x5c>
     ee0:	04 9d 08 00 	l.jal 2742ee0 <_end+0x26be0b4>
     ee4:	00 00 87 00 	l.j 22ae4 <frameBuffer+0x1dcbc>
     ee8:	06 00 00 07 	l.jal f8000f04 <_end+0xf7f7c0d8>
     eec:	8c 03 5f 5f 	l.lbz r0,24415(r3)
     ef0:	78 00 04 a2 	*inconnu*
     ef4:	05 00 00 00 	l.jal 4000ef4 <_end+0x3f7c0c8>
     ef8:	87 00 10 03 	l.lwz r24,4099(r0)
     efc:	5f 5f 78 00 	*inconnu*
     f00:	04 aa 05 00 	l.jal 2a82300 <_end+0x29fd4d4>
     f04:	00 00 87 00 	l.j 22b04 <frameBuffer+0x1dcdc>
     f08:	00 00 22 04 	l.j 9718 <frameBuffer+0x48f0>
     f0c:	00 00 00 9d 	l.j 1180 <_vsnprintf+0x3c>
     f10:	00 00 00 07 	l.j f2c <_ntoa_long_long+0x4>
     f14:	30 00 05 01 	*inconnu*
     f18:	04 00 00 03 	l.jal f24 <_ntoa_long+0xfc>
     f1c:	7c 10 00 00 	*inconnu*
     f20:	00 d5 1d 00 	l.j 3548320 <_end+0x34c34f4>
     f24:	00 00 00 00 	l.j f24 <_ntoa_long+0xfc>
     f28:	00 00 2f 00 	l.j cb28 <frameBuffer+0x7d00>
     f2c:	00 1f a8 00 	l.j 7eaf2c <_end+0x766100>
     f30:	00 05 bc 00 	l.j 16ff30 <_end+0xeb104>
     f34:	00 1d 7e 04 	l.j 760744 <_end+0x6db918>
     f38:	08 07 00 00 	l.adrp r0,e0000000 <_end+0xdff7b1d4>
     f3c:	00 4b 04 04 	l.j 12c1f4c <_end+0x123d120>
     f40:	07 00 00 00 	l.jal fc000f40 <_end+0xfbf7c114>
     f44:	55 11 04 05 	*inconnu*
     f48:	69 6e 74 00 	*inconnu*
     f4c:	04 08 05 00 	l.jal 20234c <_end+0x17d520>
     f50:	00 00 3d 04 	l.j 10360 <frameBuffer+0xb538>
     f54:	08 04 00 00 	l.adrp r0,80000000 <_end+0x7ff7b1d4>
     f58:	00 71 04 01 	l.j 1c41f5c <_end+0x1bbd130>
     f5c:	08 00 00 00 	l.adrp r0,0 <_error>
     f60:	7d 04 01 06 	*inconnu*
     f64:	00 00 00 86 	l.j 117c <_vsnprintf+0x38>
     f68:	04 01 06 00 	l.jal 42768 <frameBuffer+0x3d940>
     f6c:	00 00 7f 08 	l.j 20b8c <frameBuffer+0x1bd64>
     f70:	00 00 00 9f 	l.j 11ec <_vsnprintf+0xa8>
     f74:	7b 16 00 00 	*inconnu*
     f78:	00 49 09 00 	l.j 1243378 <_end+0x11be54c>
     f7c:	00 00 5e 04 	l.j 1878c <frameBuffer+0x13964>
     f80:	02 05 00 00 	l.j f8140f80 <_end+0xf80bc154>
     f84:	00 16 04 02 	l.j 581f8c <_end+0x4fd160>
     f88:	07 00 00 00 	l.jal fc000f88 <_end+0xfbf7c15c>
     f8c:	b0 08 00 00 	l.muli r0,r8,0
     f90:	01 79 80 0f 	l.j 5e60fcc <_end+0x5ddc1a0>
     f94:	00 00 00 34 	l.j 1064 <_ntoa_long_long+0x13c>
     f98:	08 00 00 01 	l.adrp r0,2000 <__udivdi3+0x58>
     f9c:	78 81 16 00 	*inconnu*
     fa0:	00 00 2d 08 	l.j c3c0 <frameBuffer+0x7598>
     fa4:	00 00 00 c4 	l.j 12b4 <_vsnprintf+0x170>
     fa8:	84 0f 00 00 	l.lwz r0,0(r15)
     fac:	00 3b 08 00 	l.j ec2fac <_end+0xe3e180>
     fb0:	00 00 c3 85 	l.j 31dc4 <frameBuffer+0x2cf9c>
     fb4:	16 00 00 00 	*inconnu*
     fb8:	26 04 04 04 	*inconnu*
     fbc:	00 00 00 10 	l.j ffc <_ntoa_long_long+0xd4>
     fc0:	04 08 03 00 	l.jal 201bc0 <_end+0x17cd94>
     fc4:	00 00 08 04 	l.j 2fd4 <__clz_tab+0x2ec>
     fc8:	08 04 00 00 	l.adrp r0,80000000 <_end+0x7ff7b1d4>
     fcc:	00 76 04 10 	l.j 1d8200c <_end+0x1cfd1e0>
     fd0:	03 00 00 01 	l.j fc000fd4 <_end+0xfbf7c1a8>
     fd4:	57 12 00 00 	*inconnu*
     fd8:	00 a7 08 02 	l.j 29c2fe0 <_end+0x293e1b4>
     fdc:	01 ef 0a 00 	l.j 7bc37dc <_end+0x7b3e9b0>
     fe0:	00 00 ef 13 	l.j 3cc2c <frameBuffer+0x37e04>
     fe4:	00 00 00 62 	l.j 116c <_vsnprintf+0x28>
     fe8:	02 01 ef 1a 	l.j f807cc50 <_end+0xf7ff7e24>
     fec:	00 00 00 7c 	l.j 11dc <_vsnprintf+0x98>
     ff0:	00 14 6c 6f 	l.j 51c1ac <_end+0x497380>
     ff4:	77 00 02 01 	*inconnu*
     ff8:	ef 20 00 00 	*inconnu*
     ffc:	00 7c 04 00 	l.j 1f01ffc <_end+0x1e7d1d0>
    1000:	15 08 02 01 	*inconnu*
    1004:	f8 09 00 00 	*inconnu*
    1008:	01 0f 0c 73 	l.j 43c41d4 <_end+0x433f3a8>
    100c:	00 01 fa 13 	l.j 7f858 <frameBuffer+0x7aa30>
    1010:	00 00 00 c4 	l.j 1320 <_vsnprintf+0x1dc>
    1014:	0c 6c 6c 00 	l.bnf 1b1c014 <_end+0x1a971e8>
    1018:	01 fb 0a 00 	l.j 7ec3818 <_end+0x7e3e9ec>
    101c:	00 00 92 00 	l.j 2581c <frameBuffer+0x209f4>
    1020:	16 00 00 00 	*inconnu*
    1024:	00 02 01 fc 	l.j 81814 <frameBuffer+0x7c9ec>
    1028:	03 00 00 00 	l.j fc001028 <_end+0xfbf7c1fc>
    102c:	ef 09 00 00 	*inconnu*
    1030:	01 0f 17 00 	l.j 43c6c30 <_end+0x4341e04>
    1034:	00 00 69 00 	l.j 1b434 <frameBuffer+0x1660c>
    1038:	00 01 31 18 	l.j 4d498 <frameBuffer+0x48670>
    103c:	00 00 00 2d 	l.j 10f0 <_out_char+0x8>
    1040:	ff 00 09 00 	*inconnu*
    1044:	00 01 21 19 	l.j 494a8 <frameBuffer+0x44680>
    1048:	00 00 00 67 	l.j 11e4 <_vsnprintf+0xa0>
    104c:	02 02 06 16 	l.j f80828a4 <_end+0xf7ffda78>
    1050:	00 00 01 31 	l.j 1514 <_vsnprintf+0x3d0>
    1054:	1a 00 00 01 	l.movhi r16,0x1
    1058:	9d 01 05 12 	l.addi r8,r1,1298
    105c:	01 00 00 00 	l.j 400105c <_end+0x3f7c230>
    1060:	9d 00 00 1f 	l.addi r8,r0,31
    1064:	a8 00 00 05 	l.ori r0,r0,0x5
    1068:	bc 01 9c 00 	l.sfeqi r1,-25600
    106c:	00 04 01 0d 	l.j 1014a0 <_end+0x7c674>
    1070:	6e 00 14 00 	l.lwa r16,5120(r0)
    1074:	00 00 9d 00 	l.j 28474 <frameBuffer+0x2364c>
    1078:	00 0d ab 0d 	l.j 36bcac <_end+0x2e6e80>
    107c:	64 00 1f 00 	*inconnu*
    1080:	00 00 9d 00 	l.j 28480 <frameBuffer+0x23658>
    1084:	00 0e 39 1b 	l.j 38f4f0 <_end+0x30a6c4>
    1088:	00 00 04 01 	l.j 208c <__udivdi3+0xe4>
    108c:	00 00 1f a8 	l.j 8f2c <frameBuffer+0x4104>
    1090:	00 00 02 0f 	l.j 18cc <_vsnprintf+0x788>
    1094:	01 05 14 0a 	l.j 41460bc <_end+0x40c1290>
    1098:	0a 00 00 04 	l.adrp r16,8000 <frameBuffer+0x31d8>
    109c:	23 00 00 0e 	*inconnu*
    10a0:	a5 0a 00 00 	l.andi r8,r10,0x0
    10a4:	04 1b 00 00 	l.jal 6c10a4 <_end+0x63c278>
    10a8:	0e d5 0a 00 	l.bnf fb5438a8 <_end+0xfb4bea7c>
    10ac:	00 04 13 00 	l.j 105cac <_end+0x80e80>
    10b0:	00 0f 1c 1c 	l.j 3c8120 <_end+0x3432f4>
    10b4:	00 00 02 41 	l.j 19b8 <_vsnprintf+0x874>
    10b8:	06 00 00 04 	l.jal f80010c8 <_end+0xf7f7c29c>
    10bc:	2c 06 00 00 	*inconnu*
    10c0:	04 37 06 00 	l.jal dc28c0 <_end+0xd3da94>
    10c4:	00 04 42 01 	l.j 1118c8 <_end+0x8ca9c>
    10c8:	00 00 04 4d 	l.j 21fc <__udivdi3+0x254>
    10cc:	00 00 0f 79 	l.j 4eb0 <frameBuffer+0x88>
    10d0:	01 00 00 04 	l.j 40010e0 <_end+0x3f7c2b4>
    10d4:	58 00 00 0f 	*inconnu*
    10d8:	c3 01 00 00 	l.mtspr r1,r0,0xc000
    10dc:	04 63 00 00 	l.jal 18c10dc <_end+0x183c2b0>
    10e0:	10 10 01 00 	l.bf 4014e0 <_end+0x37c6b4>
    10e4:	00 04 6e 00 	l.j 11c8e4 <_end+0x97ab8>
    10e8:	00 10 88 01 	l.j 4230ec <_end+0x39e2c0>
    10ec:	00 00 04 79 	l.j 22d0 <__udivdi3+0x328>
    10f0:	00 00 10 e8 	l.j 5490 <frameBuffer+0x668>
    10f4:	01 00 00 04 	l.j 4001104 <_end+0x3f7c2d8>
    10f8:	84 00 00 10 	l.lwz r0,16(r0)
    10fc:	f0 01 00 00 	*inconnu*
    1100:	04 8f 00 00 	l.jal 23c1100 <_end+0x233c2d4>
    1104:	11 2b 01 00 	l.bf 4ac1504 <_end+0x4a3c6d8>
    1108:	00 04 9a 00 	l.j 127908 <_end+0xa2adc>
    110c:	00 11 3c 01 	l.j 450110 <_end+0x3cb2e4>
    1110:	00 00 04 a4 	l.j 23a0 <__udivdi3+0x3f8>
    1114:	00 00 11 4b 	l.j 5640 <frameBuffer+0x818>
    1118:	06 00 00 04 	l.jal f8001128 <_end+0xf7f7c2fc>
    111c:	af 07 00 00 	l.xori r24,r7,0
    1120:	04 ba 00 00 	l.jal 2e81120 <_end+0x2dfc2f4>
    1124:	02 78 00 00 	l.j f9e01124 <_end+0xf9d7c2f8>
    1128:	02 2c 01 00 	l.j f8b01528 <_end+0xf8a7c6fc>
    112c:	00 04 bf 00 	l.j 130d2c <_end+0xabf00>
    1130:	00 11 7c 01 	l.j 460134 <_end+0x3db308>
    1134:	00 00 04 cb 	l.j 2460 <__udivdi3+0x4b8>
    1138:	00 00 11 99 	l.j 579c <frameBuffer+0x974>
    113c:	00 07 00 00 	l.j 1c113c <_end+0x13c310>
    1140:	04 d8 00 00 	l.jal 3601140 <_end+0x357c314>
    1144:	02 81 00 00 	l.j fa041144 <_end+0xf9fbc318>
    1148:	02 79 01 00 	l.j f9e41548 <_end+0xf9dbc71c>
    114c:	00 04 dd 00 	l.j 13854c <_end+0xb3720>
    1150:	00 11 9f 01 	l.j 468d54 <_end+0x3e3f28>
    1154:	00 00 04 e9 	l.j 24f8 <__udivdi3+0x550>
    1158:	00 00 11 c5 	l.j 586c <frameBuffer+0xa44>
    115c:	01 00 00 04 	l.j 400116c <_end+0x3f7c340>
    1160:	f5 00 00 11 	*inconnu*
    1164:	e1 01 00 00 	l.add r8,r1,r0
    1168:	05 01 00 00 	l.jal 4041168 <_end+0x3fbc33c>
    116c:	11 fe 01 00 	l.bf 7f8156c <_end+0x7efc740>
    1170:	00 05 0d 00 	l.j 144570 <_end+0xbf744>
    1174:	00 12 14 01 	l.j 486178 <_end+0x40134c>
    1178:	00 00 05 19 	l.j 25dc <__umoddi3+0x78>
    117c:	00 00 12 2a 	l.j 5a24 <frameBuffer+0xbfc>
    1180:	01 00 00 05 	l.j 4001194 <_end+0x3f7c368>
    1184:	25 00 00 12 	*inconnu*
    1188:	39 00 07 00 	*inconnu*
    118c:	00 06 04 00 	l.j 18218c <_end+0xfd360>
    1190:	00 02 96 00 	l.j a6990 <_end+0x21b64>
    1194:	00 02 99 01 	l.j a7598 <_end+0x2276c>
    1198:	00 00 06 09 	l.j 29bc <__umoddi3+0x458>
    119c:	00 00 12 4f 	l.j 5ad8 <frameBuffer+0xcb0>
    11a0:	01 00 00 06 	l.j 40011b8 <_end+0x3f7c38c>
    11a4:	15 00 00 12 	l.nop 0x12
    11a8:	65 00 07 00 	*inconnu*
    11ac:	00 05 32 00 	l.j 14d9ac <_end+0xc8b80>
    11b0:	00 02 a1 00 	l.j a95b0 <_end+0x24784>
    11b4:	00 02 b9 01 	l.j af5b8 <_end+0x2a78c>
    11b8:	00 00 05 37 	l.j 2694 <__umoddi3+0x130>
    11bc:	00 00 12 7b 	l.j 5ba8 <frameBuffer+0xd80>
    11c0:	01 00 00 05 	l.j 40011d4 <_end+0x3f7c3a8>
    11c4:	43 00 00 12 	*inconnu*
    11c8:	83 00 07 00 	*inconnu*
    11cc:	00 05 aa 00 	l.j 16b9cc <_end+0xe6ba0>
    11d0:	00 02 ac 00 	l.j ac1d0 <_end+0x273a4>
    11d4:	00 02 fe 06 	l.j c09ec <_end+0x3bbc0>
    11d8:	00 00 05 af 	l.j 2894 <__umoddi3+0x330>
    11dc:	06 00 00 05 	l.jal f80011f0 <_end+0xf7f7c3c4>
    11e0:	bb 01 00 00 	l.slli r24,r1,0x0
    11e4:	05 c7 00 00 	l.jal 71c11e4 <_end+0x713c3b8>
    11e8:	12 92 01 00 	l.bf fa4815e8 <_end+0xfa3fc7bc>
    11ec:	00 05 d3 00 	l.j 175dec <_end+0xf0fc0>
    11f0:	00 12 af 01 	l.j 4acdf4 <_end+0x427fc8>
    11f4:	00 00 05 df 	l.j 2970 <__umoddi3+0x40c>
    11f8:	00 00 12 c5 	l.j 5d0c <frameBuffer+0xee4>
    11fc:	01 00 00 05 	l.j 4001210 <_end+0x3f7c3e4>
    1200:	eb 00 00 12 	*inconnu*
    1204:	e2 01 00 00 	l.add r16,r1,r0
    1208:	05 f7 00 00 	l.jal 7dc1208 <_end+0x7d3c3dc>
    120c:	12 f1 00 07 	l.bf fbc41228 <_end+0xfbbbc3fc>
    1210:	00 00 06 34 	l.j 2ae0 <__umoddi3+0x57c>
    1214:	00 00 02 c6 	l.j 1d2c <memcpy+0x1a0>
    1218:	00 00 03 b5 	l.j 20ec <__udivdi3+0x144>
    121c:	01 00 00 06 	l.j 4001234 <_end+0x3f7c408>
    1220:	35 00 00 13 	*inconnu*
    1224:	07 01 00 00 	l.jal fc041224 <_end+0xfbfbc3f8>
    1228:	06 40 00 00 	l.jal f9001228 <_end+0xf8f7c3fc>
    122c:	13 0f 07 00 	l.bf fc3c2e2c <_end+0xfc33e000>
    1230:	00 06 4b 00 	l.j 193e30 <_end+0x10f004>
    1234:	00 02 d1 00 	l.j b5634 <_end+0x30808>
    1238:	00 03 6a 01 	l.j dba3c <_end+0x56c10>
    123c:	00 00 06 50 	l.j 2b7c <__umoddi3+0x618>
    1240:	00 00 13 26 	l.j 5ed8 <frameBuffer+0x10b0>
    1244:	01 00 00 06 	l.j 400125c <_end+0x3f7c430>
    1248:	5c 00 00 13 	*inconnu*
    124c:	6e 01 00 00 	l.lwa r16,0(r1)
    1250:	06 68 00 00 	l.jal f9a01250 <_end+0xf997c424>
    1254:	13 91 01 00 	l.bf fe441654 <_end+0xfe3bc828>
    1258:	00 06 74 00 	l.j 19e258 <_end+0x11942c>
    125c:	00 13 b5 01 	l.j 4ee660 <_end+0x469834>
    1260:	00 00 06 80 	l.j 2c60 <__umoddi3+0x6fc>
    1264:	00 00 13 d2 	l.j 61ac <frameBuffer+0x1384>
    1268:	01 00 00 06 	l.j 4001280 <_end+0x3f7c454>
    126c:	8c 00 00 13 	l.lbz r0,19(r0)
    1270:	e8 01 00 00 	*inconnu*
    1274:	06 98 00 00 	l.jal fa601274 <_end+0xfa57c448>
    1278:	14 05 00 0e 	*inconnu*
    127c:	00 00 06 a5 	l.j 2d10 <__clz_tab+0x28>
    1280:	00 00 02 f0 	l.j 1e40 <uart_wait_rx+0x20>
    1284:	01 00 00 06 	l.j 400129c <_end+0x3f7c470>
    1288:	aa 00 00 14 	l.ori r16,r0,0x14
    128c:	22 01 00 00 	*inconnu*
    1290:	06 b6 00 00 	l.jal fad81290 <_end+0xfacfc464>
    1294:	14 2a 01 00 	*inconnu*
    1298:	00 06 c2 00 	l.j 1b1a98 <_end+0x12cc6c>
    129c:	00 14 32 01 	l.j 50daa0 <_end+0x488c74>
    12a0:	00 00 06 ce 	l.j 2dd8 <__clz_tab+0xf0>
    12a4:	00 00 14 3a 	l.j 638c <frameBuffer+0x1564>
    12a8:	06 00 00 06 	l.jal f80012c0 <_end+0xf7f7c494>
    12ac:	da 06 00 00 	l.sb -32768(r6),r0
    12b0:	06 e6 01 00 	l.jal fb9816b0 <_end+0xfb8fc884>
    12b4:	00 06 f2 00 	l.j 1bdab4 <_end+0x138c88>
    12b8:	00 14 42 01 	l.j 511abc <_end+0x48cc90>
    12bc:	00 00 06 fe 	l.j 2eb4 <__clz_tab+0x1cc>
    12c0:	00 00 14 87 	l.j 64dc <frameBuffer+0x16b4>
    12c4:	00 00 0e 00 	l.j 4ac4 <__clz_tab+0x1ddc>
    12c8:	00 05 50 00 	l.j 1552c8 <_end+0xd049c>
    12cc:	00 03 05 01 	l.j c26d0 <_end+0x3d8a4>
    12d0:	00 00 05 55 	l.j 2824 <__umoddi3+0x2c0>
    12d4:	00 00 14 8f 	l.j 6510 <frameBuffer+0x16e8>
    12d8:	01 00 00 05 	l.j 40012ec <_end+0x3f7c4c0>
    12dc:	61 00 00 14 	*inconnu*
    12e0:	9e 01 00 00 	l.addi r16,r1,0
    12e4:	05 6d 00 00 	l.jal 5b412e4 <_end+0x5abc4b8>
    12e8:	14 ad 01 00 	*inconnu*
    12ec:	00 05 79 00 	l.j 15f6ec <_end+0xda8c0>
    12f0:	00 14 d1 01 	l.j 5356f4 <_end+0x4b08c8>
    12f4:	00 00 05 85 	l.j 2908 <__umoddi3+0x3a4>
    12f8:	00 00 14 ee 	l.j 66b0 <frameBuffer+0x1888>
    12fc:	01 00 00 05 	l.j 4001310 <_end+0x3f7c4e4>
    1300:	91 00 00 15 	l.lbs r8,21(r0)
    1304:	04 01 00 00 	l.jal 41304 <frameBuffer+0x3c4dc>
    1308:	05 9d 00 00 	l.jal 6741308 <_end+0x66bc4dc>
    130c:	15 1a 00 00 	*inconnu*
    1310:	00 00 1d 00 	l.j 8710 <frameBuffer+0x38e8>
    1314:	00 01 6b 01 	l.j 5bf18 <frameBuffer+0x570f0>
    1318:	03 e3 01 00 	l.j ff8c1718 <_end+0xff83c8ec>
    131c:	00 00 9d 03 	l.j 28728 <frameBuffer+0x23900>
    1320:	00 00 07 2d 	l.j 2fd4 <__clz_tab+0x2ec>
    1324:	0b 6e 00 17 	l.adrp r27,c002e000 <_end+0xbffa91d4>
    1328:	00 00 00 9d 	l.j 159c <_vsnprintf+0x458>
    132c:	0b 64 00 22 	l.adrp r27,80044000 <_end+0x7ffbf1d4>
    1330:	00 00 00 9d 	l.j 15a4 <_vsnprintf+0x460>
    1334:	0b 72 70 00 	l.adrp r27,4e000000 <_end+0x4df7b1d4>
    1338:	2e 00 00 07 	*inconnu*
    133c:	2d 03 6e 6e 	*inconnu*
    1340:	00 03 e5 11 	l.j fa784 <_end+0x75958>
    1344:	00 00 01 1c 	l.j 17b4 <_vsnprintf+0x670>
    1348:	03 64 64 00 	l.j fd91a348 <_end+0xfd89551c>
    134c:	03 e6 11 00 	l.j ff98574c <_end+0xff900920>
    1350:	00 01 1c 03 	l.j 4835c <frameBuffer+0x43534>
    1354:	72 72 00 03 	l.nios_rrr r19,r18,r0,0x3
    1358:	e7 0b 00 00 	*inconnu*
    135c:	01 0f 03 64 	l.j 43c20ec <_end+0x433d2c0>
    1360:	30 00 03 e8 	*inconnu*
    1364:	0a 00 00 00 	l.adrp r16,0 <_error>
    1368:	87 03 64 31 	l.lwz r24,25649(r3)
    136c:	00 03 e8 0e 	l.j fb3a4 <_end+0x76578>
    1370:	00 00 00 87 	l.j 158c <_vsnprintf+0x448>
    1374:	03 6e 30 00 	l.j fdb8d374 <_end+0xfdb08548>
    1378:	03 e8 12 00 	l.j ffa05b78 <_end+0xff980d4c>
    137c:	00 00 87 03 	l.j 22f88 <frameBuffer+0x1e160>
    1380:	6e 31 00 03 	l.lwa r17,3(r17)
    1384:	e8 16 00 00 	*inconnu*
    1388:	00 87 03 6e 	l.j 21c2140 <_end+0x213d314>
    138c:	32 00 03 e8 	*inconnu*
    1390:	1a 00 00 00 	l.movhi r16,0x0
    1394:	87 03 71 30 	l.lwz r24,28976(r3)
    1398:	00 03 e9 0a 	l.j fb7c0 <_end+0x76994>
    139c:	00 00 00 87 	l.j 15b8 <_vsnprintf+0x474>
    13a0:	03 71 31 00 	l.j fdc4d7a0 <_end+0xfdbc8974>
    13a4:	03 e9 0e 00 	l.j ffa44ba4 <_end+0xff9bfd78>
    13a8:	00 00 87 03 	l.j 22fb4 <frameBuffer+0x1e18c>
    13ac:	62 00 03 ea 	*inconnu*
    13b0:	0a 00 00 00 	l.adrp r16,0 <_error>
    13b4:	87 03 62 6d 	l.lwz r24,25197(r3)
    13b8:	00 03 ea 0d 	l.j fbbec <_end+0x76dc0>
    13bc:	00 00 00 87 	l.j 15d8 <_vsnprintf+0x494>
    13c0:	03 77 77 00 	l.j fdddefc0 <_end+0xfdd5a194>
    13c4:	04 b3 11 00 	l.jal 2cc57c4 <_end+0x2c40998>
    13c8:	00 01 1c 05 	l.j 483dc <frameBuffer+0x435b4>
    13cc:	00 00 04 d8 	l.j 272c <__umoddi3+0x1c8>
    13d0:	02 00 00 01 	l.j f80013d4 <_end+0xf7f7c5a8>
    13d4:	66 04 1a 04 	*inconnu*
    13d8:	00 00 00 87 	l.j 15f4 <_vsnprintf+0x4b0>
    13dc:	03 5f 5f 61 	l.j fd7d9160 <_end+0xfd754334>
    13e0:	00 04 1a 04 	l.j 107bf0 <_end+0x82dc4>
    13e4:	00 00 00 87 	l.j 1600 <_vsnprintf+0x4bc>
    13e8:	00 05 00 00 	l.j 1413e8 <_end+0xbc5bc>
    13ec:	05 32 02 00 	l.jal 4c81bec <_end+0x4bfcdc0>
    13f0:	00 00 25 04 	l.j a800 <frameBuffer+0x59d8>
    13f4:	26 04 00 00 	*inconnu*
    13f8:	00 87 02 00 	l.j 21c1bf8 <_end+0x213cdcc>
    13fc:	00 00 20 04 	l.j 940c <frameBuffer+0x45e4>
    1400:	26 04 00 00 	*inconnu*
    1404:	00 87 02 00 	l.j 21c1c04 <_end+0x213cdd8>
    1408:	00 00 d0 04 	l.j 35418 <frameBuffer+0x305f0>
    140c:	26 04 00 00 	*inconnu*
    1410:	00 87 02 00 	l.j 21c1c10 <_end+0x213cde4>
    1414:	00 00 cb 04 	l.j 34024 <frameBuffer+0x2f1fc>
    1418:	26 04 00 00 	*inconnu*
    141c:	00 87 02 00 	l.j 21c1c1c <_end+0x213cdf0>
    1420:	00 01 85 04 	l.j 62830 <frameBuffer+0x5da08>
    1424:	26 04 00 00 	*inconnu*
    1428:	00 87 02 00 	l.j 21c1c28 <_end+0x213cdfc>
    142c:	00 01 80 04 	l.j 6143c <frameBuffer+0x5c614>
    1430:	26 04 00 00 	*inconnu*
    1434:	00 87 03 5f 	l.j 21c21b0 <_end+0x213d384>
    1438:	5f 6d 00 04 	*inconnu*
    143c:	26 04 00 00 	*inconnu*
    1440:	00 87 00 05 	l.j 21c1454 <_end+0x213c628>
    1444:	00 00 05 50 	l.j 2984 <__umoddi3+0x420>
    1448:	02 00 00 01 	l.j f800144c <_end+0xf7f7c620>
    144c:	66 04 32 04 	*inconnu*
    1450:	00 00 00 87 	l.j 166c <_vsnprintf+0x528>
    1454:	03 5f 5f 61 	l.j fd7d91d8 <_end+0xfd7543ac>
    1458:	00 04 32 04 	l.j 10dc68 <_end+0x88e3c>
    145c:	00 00 00 87 	l.j 1678 <_vsnprintf+0x534>
    1460:	00 05 00 00 	l.j 141460 <_end+0xbc634>
    1464:	05 aa 02 00 	l.jal 6a81c64 <_end+0x69fce38>
    1468:	00 00 25 04 	l.j a878 <frameBuffer+0x5a50>
    146c:	4b 08 00 00 	*inconnu*
    1470:	00 87 02 00 	l.j 21c1c70 <_end+0x213ce44>
    1474:	00 00 20 04 	l.j 9484 <frameBuffer+0x465c>
    1478:	4b 08 00 00 	*inconnu*
    147c:	00 87 02 00 	l.j 21c1c7c <_end+0x213ce50>
    1480:	00 00 d0 04 	l.j 35490 <frameBuffer+0x30668>
    1484:	4b 08 00 00 	*inconnu*
    1488:	00 87 02 00 	l.j 21c1c88 <_end+0x213ce5c>
    148c:	00 00 cb 04 	l.j 3409c <frameBuffer+0x2f274>
    1490:	4b 08 00 00 	*inconnu*
    1494:	00 87 02 00 	l.j 21c1c94 <_end+0x213ce68>
    1498:	00 01 85 04 	l.j 628a8 <frameBuffer+0x5da80>
    149c:	4b 08 00 00 	*inconnu*
    14a0:	00 87 02 00 	l.j 21c1ca0 <_end+0x213ce74>
    14a4:	00 01 80 04 	l.j 614b4 <frameBuffer+0x5c68c>
    14a8:	4b 08 00 00 	*inconnu*
    14ac:	00 87 03 5f 	l.j 21c2228 <_end+0x213d3fc>
    14b0:	5f 6d 00 04 	*inconnu*
    14b4:	4b 08 00 00 	*inconnu*
    14b8:	00 87 00 05 	l.j 21c14cc <_end+0x213c6a0>
    14bc:	00 00 06 04 	l.j 2ccc <__umoddi3+0x768>
    14c0:	02 00 00 00 	l.j f80014c0 <_end+0xf7f7c694>
    14c4:	25 04 50 04 	*inconnu*
    14c8:	00 00 00 87 	l.j 16e4 <_vsnprintf+0x5a0>
    14cc:	02 00 00 00 	l.j f80014cc <_end+0xf7f7c6a0>
    14d0:	20 04 50 04 	*inconnu*
    14d4:	00 00 00 87 	l.j 16f0 <_vsnprintf+0x5ac>
    14d8:	02 00 00 00 	l.j f80014d8 <_end+0xf7f7c6ac>
    14dc:	d0 04 50 04 	*inconnu*
    14e0:	00 00 00 87 	l.j 16fc <_vsnprintf+0x5b8>
    14e4:	02 00 00 00 	l.j f80014e4 <_end+0xf7f7c6b8>
    14e8:	cb 04 50 04 	*inconnu*
    14ec:	00 00 00 87 	l.j 1708 <_vsnprintf+0x5c4>
    14f0:	02 00 00 01 	l.j f80014f4 <_end+0xf7f7c6c8>
    14f4:	85 04 50 04 	l.lwz r8,20484(r4)
    14f8:	00 00 00 87 	l.j 1714 <_vsnprintf+0x5d0>
    14fc:	02 00 00 01 	l.j f8001500 <_end+0xf7f7c6d4>
    1500:	80 04 50 04 	*inconnu*
    1504:	00 00 00 87 	l.j 1720 <_vsnprintf+0x5dc>
    1508:	03 5f 5f 6d 	l.j fd7d92bc <_end+0xfd754490>
    150c:	00 04 50 04 	l.j 11551c <_end+0x906f0>
    1510:	00 00 00 87 	l.j 172c <_vsnprintf+0x5e8>
    1514:	00 05 00 00 	l.j 141514 <_end+0xbc6e8>
    1518:	06 22 02 00 	l.jal f8881d18 <_end+0xf87fceec>
    151c:	00 01 66 04 	l.j 5ad2c <frameBuffer+0x55f04>
    1520:	73 04 00 00 	l.nios_rrr r24,r4,r0,0x0
    1524:	00 87 03 5f 	l.j 21c22a0 <_end+0x213d474>
    1528:	5f 61 00 04 	*inconnu*
    152c:	73 04 00 00 	l.nios_rrr r24,r4,r0,0x0
    1530:	00 87 00 05 	l.j 21c1544 <_end+0x213c718>
    1534:	00 00 06 34 	l.j 2e04 <__clz_tab+0x11c>
    1538:	03 5f 5f 78 	l.j fd7d9318 <_end+0xfd7544ec>
    153c:	00 04 81 05 	l.j 121950 <_end+0x9cb24>
    1540:	00 00 00 87 	l.j 175c <_vsnprintf+0x618>
    1544:	00 0f 03 6d 	l.j 3c22f8 <_end+0x33d4cc>
    1548:	31 00 04 91 	*inconnu*
    154c:	0f 00 00 00 	l.bnf fc00154c <_end+0xfbf7c720>
    1550:	87 03 6d 30 	l.lwz r24,27952(r3)
    1554:	00 04 91 13 	l.j 1259a0 <_end+0xa0b74>
    1558:	00 00 00 87 	l.j 1774 <_vsnprintf+0x630>
    155c:	05 00 00 06 	l.jal 4001574 <_end+0x3f7c748>
    1560:	a5 02 00 00 	l.andi r8,r2,0x0
    1564:	00 25 04 9c 	l.j 9427d4 <_end+0x8bd9a8>
    1568:	08 00 00 00 	l.adrp r0,0 <_error>
    156c:	87 02 00 00 	l.lwz r24,0(r2)
    1570:	00 20 04 9c 	l.j 8027e0 <_end+0x77d9b4>
    1574:	08 00 00 00 	l.adrp r0,0 <_error>
    1578:	87 02 00 00 	l.lwz r24,0(r2)
    157c:	00 d0 04 9c 	l.j 34027ec <_end+0x337d9c0>
    1580:	08 00 00 00 	l.adrp r0,0 <_error>
    1584:	87 02 00 00 	l.lwz r24,0(r2)
    1588:	00 cb 04 9c 	l.j 32c27f8 <_end+0x323d9cc>
    158c:	08 00 00 00 	l.adrp r0,0 <_error>
    1590:	87 02 00 00 	l.lwz r24,0(r2)
    1594:	01 85 04 9c 	l.j 6142804 <_end+0x60bd9d8>
    1598:	08 00 00 00 	l.adrp r0,0 <_error>
    159c:	87 02 00 00 	l.lwz r24,0(r2)
    15a0:	01 80 04 9c 	l.j 6002810 <_end+0x5f7d9e4>
    15a4:	08 00 00 00 	l.adrp r0,0 <_error>
    15a8:	87 03 5f 5f 	l.lwz r24,24415(r3)
    15ac:	6d 00 04 9c 	l.lwa r8,1180(r0)
    15b0:	08 00 00 00 	l.adrp r0,0 <_error>
    15b4:	87 00 05 00 	l.lwz r24,1280(r0)
    15b8:	00 07 0b 02 	l.j 1c41c0 <_end+0x13f394>
    15bc:	00 00 00 8b 	l.j 17e8 <_vsnprintf+0x6a4>
    15c0:	04 9d 08 00 	l.jal 27435c0 <_end+0x26be794>
    15c4:	00 00 87 02 	l.j 231cc <frameBuffer+0x1e3a4>
    15c8:	00 00 00 90 	l.j 1808 <_vsnprintf+0x6c4>
    15cc:	04 9d 08 00 	l.jal 27435cc <_end+0x26be7a0>
    15d0:	00 00 87 02 	l.j 231d8 <frameBuffer+0x1e3b0>
    15d4:	00 00 00 95 	l.j 1828 <_vsnprintf+0x6e4>
    15d8:	04 9d 08 00 	l.jal 27435d8 <_end+0x26be7ac>
    15dc:	00 00 87 02 	l.j 231e4 <frameBuffer+0x1e3bc>
    15e0:	00 00 00 9a 	l.j 1848 <_vsnprintf+0x704>
    15e4:	04 9d 08 00 	l.jal 27435e4 <_end+0x26be7b8>
    15e8:	00 00 87 02 	l.j 231f0 <frameBuffer+0x1e3c8>
    15ec:	00 00 01 8f 	l.j 1c28 <memcpy+0x9c>
    15f0:	04 9d 08 00 	l.jal 27435f0 <_end+0x26be7c4>
    15f4:	00 00 87 02 	l.j 231fc <frameBuffer+0x1e3d4>
    15f8:	00 00 00 2f 	l.j 16b4 <_vsnprintf+0x570>
    15fc:	04 9d 08 00 	l.jal 27435fc <_end+0x26be7d0>
    1600:	00 00 87 02 	l.j 23208 <frameBuffer+0x1e3e0>
    1604:	00 00 01 8a 	l.j 1c2c <memcpy+0xa0>
    1608:	04 9d 08 00 	l.jal 2743608 <_end+0x26be7dc>
    160c:	00 00 87 02 	l.j 23214 <frameBuffer+0x1e3ec>
    1610:	00 00 00 2a 	l.j 16b8 <_vsnprintf+0x574>
    1614:	04 9d 08 00 	l.jal 2743614 <_end+0x26be7e8>
    1618:	00 00 87 00 	l.j 23218 <frameBuffer+0x1e3f0>
    161c:	05 00 00 07 	l.jal 4001638 <_end+0x3f7c80c>
    1620:	1d 03 5f 5f 	*inconnu*
    1624:	78 00 04 a2 	*inconnu*
    1628:	05 00 00 00 	l.jal 4001628 <_end+0x3f7c7fc>
    162c:	87 00 0f 03 	l.lwz r24,3843(r0)
    1630:	5f 5f 78 00 	*inconnu*
    1634:	04 aa 05 00 	l.jal 2a82a34 <_end+0x29fdc08>
    1638:	00 00 87 00 	l.j 23238 <frameBuffer+0x1e410>
    163c:	00 00 1e 04 	l.j 8e4c <frameBuffer+0x4024>
    1640:	00 00 00 9d 	l.j 18b4 <_vsnprintf+0x770>
    1644:	00 00 00 07 	l.j 1660 <_vsnprintf+0x51c>
    1648:	77 00 05 01 	*inconnu*
    164c:	04 00 00 05 	l.jal 1660 <_vsnprintf+0x51c>
    1650:	15 10 00 00 	*inconnu*
    1654:	00 d5 1d 00 	l.j 3548a54 <_end+0x34c3c28>
    1658:	00 00 00 00 	l.j 1658 <_vsnprintf+0x514>
    165c:	00 00 2f 00 	l.j d25c <frameBuffer+0x8434>
    1660:	00 25 64 00 	l.j 95a660 <_end+0x8d5834>
    1664:	00 05 78 00 	l.j 15f664 <_end+0xda838>
    1668:	00 2b 6a 04 	l.j adbe78 <_end+0xa5704c>
    166c:	08 07 00 00 	l.adrp r0,e0000000 <_end+0xdff7b1d4>
    1670:	00 4b 11 04 	l.j 12c5a80 <_end+0x1240c54>
    1674:	05 69 6e 74 	l.jal 5a5d044 <_end+0x59d8218>
    1678:	00 04 04 07 	l.j 102694 <_end+0x7d868>
    167c:	00 00 00 55 	l.j 17d0 <_vsnprintf+0x68c>
    1680:	04 08 05 00 	l.jal 202a80 <_end+0x17dc54>
    1684:	00 00 3d 04 	l.j 10a94 <frameBuffer+0xbc6c>
    1688:	08 04 00 00 	l.adrp r0,80000000 <_end+0x7ff7b1d4>
    168c:	00 71 04 01 	l.j 1c42690 <_end+0x1bbd864>
    1690:	08 00 00 00 	l.adrp r0,0 <_error>
    1694:	7d 04 01 06 	*inconnu*
    1698:	00 00 00 86 	l.j 18b0 <_vsnprintf+0x76c>
    169c:	04 01 06 00 	l.jal 42e9c <frameBuffer+0x3e074>
    16a0:	00 00 7f 08 	l.j 212c0 <frameBuffer+0x1c498>
    16a4:	00 00 00 9f 	l.j 1920 <_vsnprintf+0x7dc>
    16a8:	7b 16 00 00 	*inconnu*
    16ac:	00 49 09 00 	l.j 1243aac <_end+0x11bec80>
    16b0:	00 00 5e 04 	l.j 18ec0 <frameBuffer+0x14098>
    16b4:	02 05 00 00 	l.j f81416b4 <_end+0xf80bc888>
    16b8:	00 16 04 02 	l.j 5826c0 <_end+0x4fd894>
    16bc:	07 00 00 00 	l.jal fc0016bc <_end+0xfbf7c890>
    16c0:	b0 08 00 00 	l.muli r0,r8,0
    16c4:	01 79 80 0f 	l.j 5e61700 <_end+0x5ddc8d4>
    16c8:	00 00 00 2d 	l.j 177c <_vsnprintf+0x638>
    16cc:	08 00 00 01 	l.adrp r0,2000 <__udivdi3+0x58>
    16d0:	78 81 16 00 	*inconnu*
    16d4:	00 00 34 08 	l.j e6f4 <frameBuffer+0x98cc>
    16d8:	00 00 00 c4 	l.j 19e8 <_vsnprintf+0x8a4>
    16dc:	84 0f 00 00 	l.lwz r0,0(r15)
    16e0:	00 3b 08 00 	l.j ec36e0 <_end+0xe3e8b4>
    16e4:	00 00 c3 85 	l.j 324f8 <frameBuffer+0x2d6d0>
    16e8:	16 00 00 00 	*inconnu*
    16ec:	26 04 04 04 	*inconnu*
    16f0:	00 00 00 10 	l.j 1730 <_vsnprintf+0x5ec>
    16f4:	04 08 03 00 	l.jal 2022f4 <_end+0x17d4c8>
    16f8:	00 00 08 04 	l.j 3708 <__clz_tab+0xa20>
    16fc:	08 04 00 00 	l.adrp r0,80000000 <_end+0x7ff7b1d4>
    1700:	00 76 04 10 	l.j 1d82740 <_end+0x1cfd914>
    1704:	03 00 00 01 	l.j fc001708 <_end+0xfbf7c8dc>
    1708:	57 12 00 00 	*inconnu*
    170c:	00 a7 08 02 	l.j 29c3714 <_end+0x293e8e8>
    1710:	01 ef 0a 00 	l.j 7bc3f10 <_end+0x7b3f0e4>
    1714:	00 00 ef 13 	l.j 3d360 <frameBuffer+0x38538>
    1718:	00 00 00 62 	l.j 18a0 <_vsnprintf+0x75c>
    171c:	02 01 ef 1a 	l.j f807d384 <_end+0xf7ff8558>
    1720:	00 00 00 7c 	l.j 1910 <_vsnprintf+0x7cc>
    1724:	00 14 6c 6f 	l.j 51c8e0 <_end+0x497ab4>
    1728:	77 00 02 01 	*inconnu*
    172c:	ef 20 00 00 	*inconnu*
    1730:	00 7c 04 00 	l.j 1f02730 <_end+0x1e7d904>
    1734:	15 08 02 01 	*inconnu*
    1738:	f8 09 00 00 	*inconnu*
    173c:	01 0f 0c 73 	l.j 43c4908 <_end+0x433fadc>
    1740:	00 01 fa 13 	l.j 7ff8c <frameBuffer+0x7b164>
    1744:	00 00 00 c4 	l.j 1a54 <_vsnprintf+0x910>
    1748:	0c 6c 6c 00 	l.bnf 1b1c748 <_end+0x1a9791c>
    174c:	01 fb 0a 00 	l.j 7ec3f4c <_end+0x7e3f120>
    1750:	00 00 92 00 	l.j 25f50 <frameBuffer+0x21128>
    1754:	16 00 00 00 	*inconnu*
    1758:	00 02 01 fc 	l.j 81f48 <frameBuffer+0x7d120>
    175c:	03 00 00 00 	l.j fc00175c <_end+0xfbf7c930>
    1760:	ef 09 00 00 	*inconnu*
    1764:	01 0f 17 00 	l.j 43c7364 <_end+0x4342538>
    1768:	00 00 69 00 	l.j 1bb68 <frameBuffer+0x16d40>
    176c:	00 01 31 18 	l.j 4dbcc <frameBuffer+0x48da4>
    1770:	00 00 00 34 	l.j 1840 <_vsnprintf+0x6fc>
    1774:	ff 00 09 00 	*inconnu*
    1778:	00 01 21 19 	l.j 49bdc <frameBuffer+0x44db4>
    177c:	00 00 00 67 	l.j 1918 <_vsnprintf+0x7d4>
    1780:	02 02 06 16 	l.j f8082fd8 <_end+0xf7ffe1ac>
    1784:	00 00 01 31 	l.j 1c48 <memcpy+0xbc>
    1788:	1a 00 00 01 	l.movhi r16,0x1
    178c:	a7 01 05 06 	l.andi r24,r1,0x506
    1790:	01 00 00 00 	l.j 4001790 <_end+0x3f7c964>
    1794:	9d 00 00 25 	l.addi r8,r0,37
    1798:	64 00 00 05 	*inconnu*
    179c:	78 01 9c 00 	*inconnu*
    17a0:	00 04 48 0d 	l.j 1137d4 <_end+0x8e9a8>
    17a4:	75 00 14 00 	*inconnu*
    17a8:	00 00 9d 00 	l.j 28ba8 <frameBuffer+0x23d80>
    17ac:	00 15 3c 0d 	l.j 5507e0 <_end+0x4cb9b4>
    17b0:	76 00 1f 00 	*inconnu*
    17b4:	00 00 9d 00 	l.j 28bb4 <frameBuffer+0x23d8c>
    17b8:	00 15 9c 03 	l.j 5687c4 <_end+0x4e3998>
    17bc:	77 00 05 08 	*inconnu*
    17c0:	0b 00 00 00 	l.adrp r24,0 <_error>
    17c4:	9d 1b 00 00 	l.addi r8,r27,0
    17c8:	04 48 00 00 	l.jal 12017c8 <_end+0x117c99c>
    17cc:	25 64 00 00 	*inconnu*
    17d0:	03 2b 01 05 	l.j fcac1be4 <_end+0xfca3cdb8>
    17d4:	0a 0a 0a 00 	l.adrp r16,41400000 <_end+0x4137b1d4>
    17d8:	00 04 6a 00 	l.j 11bfd8 <_end+0x971ac>
    17dc:	00 15 d8 0a 	l.j 577804 <_end+0x4f29d8>
    17e0:	00 00 04 62 	l.j 2968 <__umoddi3+0x404>
    17e4:	00 00 16 14 	l.j 7034 <frameBuffer+0x220c>
    17e8:	0a 00 00 04 	l.adrp r16,8000 <frameBuffer+0x31d8>
    17ec:	5a 00 00 16 	*inconnu*
    17f0:	5b 1c 00 00 	*inconnu*
    17f4:	03 2b 05 00 	l.j fcac2bf4 <_end+0xfca3ddc8>
    17f8:	00 04 73 05 	l.j 11e40c <_end+0x995e0>
    17fc:	00 00 04 7e 	l.j 29f4 <__umoddi3+0x490>
    1800:	05 00 00 04 	l.jal 4001810 <_end+0x3f7c9e4>
    1804:	89 01 00 00 	l.lws r8,0(r1)
    1808:	04 94 00 00 	l.jal 2501808 <_end+0x247c9dc>
    180c:	16 a3 01 00 	*inconnu*
    1810:	00 04 9f 00 	l.j 129410 <_end+0xa45e4>
    1814:	00 16 e2 01 	l.j 5ba018 <_end+0x5351ec>
    1818:	00 00 04 aa 	l.j 2ac0 <__umoddi3+0x55c>
    181c:	00 00 17 1a 	l.j 7484 <frameBuffer+0x265c>
    1820:	01 00 00 04 	l.j 4001830 <_end+0x3f7ca04>
    1824:	b5 00 00 17 	l.mfspr r8,r0,0x17
    1828:	91 01 00 00 	l.lbs r8,0(r1)
    182c:	04 c0 00 00 	l.jal 300182c <_end+0x2f7ca00>
    1830:	18 58 01 00 	*inconnu*
    1834:	00 04 cb 00 	l.j 134434 <_end+0xaf608>
    1838:	00 18 60 01 	l.j 61983c <_end+0x594a10>
    183c:	00 00 04 d6 	l.j 2b94 <__umoddi3+0x630>
    1840:	00 00 18 79 	l.j 7a24 <frameBuffer+0x2bfc>
    1844:	01 00 00 04 	l.j 4001854 <_end+0x3f7ca28>
    1848:	e1 00 00 18 	*inconnu*
    184c:	9a 01 00 00 	l.lhs r16,0(r1)
    1850:	04 eb 00 00 	l.jal 3ac1850 <_end+0x3a3ca24>
    1854:	18 b7 05 00 	*inconnu*
    1858:	00 04 f6 07 	l.j 13f074 <_end+0xba248>
    185c:	00 00 05 01 	l.j 2c60 <__umoddi3+0x6fc>
    1860:	00 00 03 5d 	l.j 25d4 <__umoddi3+0x70>
    1864:	00 00 02 36 	l.j 213c <__udivdi3+0x194>
    1868:	01 00 00 05 	l.j 400187c <_end+0x3f7ca50>
    186c:	06 00 00 18 	l.jal f80018cc <_end+0xf7f7caa0>
    1870:	e8 01 00 00 	*inconnu*
    1874:	05 12 00 00 	l.jal 4481874 <_end+0x43fca48>
    1878:	18 f5 00 0e 	*inconnu*
    187c:	00 00 05 1f 	l.j 2cf8 <__clz_tab+0x10>
    1880:	00 00 25 e8 	l.j b020 <frameBuffer+0x61f8>
    1884:	00 00 00 50 	l.j 19c4 <_vsnprintf+0x880>
    1888:	00 00 02 7b 	l.j 2274 <__udivdi3+0x2cc>
    188c:	01 00 00 05 	l.j 40018a0 <_end+0x3f7ca74>
    1890:	24 00 00 18 	*inconnu*
    1894:	fb 01 00 00 	*inconnu*
    1898:	05 30 00 00 	l.jal 4c01898 <_end+0x4b7ca6c>
    189c:	19 03 05 00 	*inconnu*
    18a0:	00 05 3c 05 	l.j 1508b4 <_end+0xcba88>
    18a4:	00 00 05 48 	l.j 2dc4 <__clz_tab+0xdc>
    18a8:	01 00 00 05 	l.j 40018bc <_end+0x3f7ca90>
    18ac:	54 00 00 19 	*inconnu*
    18b0:	0b 05 00 00 	l.adrp r24,a0000000 <_end+0x9ff7b1d4>
    18b4:	05 60 01 00 	l.jal 5801cb4 <_end+0x577ce88>
    18b8:	00 05 6c 00 	l.j 15c8b8 <_end+0xd7a8c>
    18bc:	00 19 1a 00 	l.j 6480bc <_end+0x5c3290>
    18c0:	07 00 00 06 	l.jal fc0018d8 <_end+0xfbf7caac>
    18c4:	4b 00 00 03 	*inconnu*
    18c8:	66 00 00 02 	*inconnu*
    18cc:	9b 01 00 00 	l.lhs r24,0(r1)
    18d0:	06 50 00 00 	l.jal f94018d0 <_end+0xf937caa4>
    18d4:	19 22 01 00 	*inconnu*
    18d8:	00 06 5c 00 	l.j 1988d8 <_end+0x113aac>
    18dc:	00 19 38 00 	l.j 64f8dc <_end+0x5caab0>
    18e0:	07 00 00 06 	l.jal fc0018f8 <_end+0xfbf7cacc>
    18e4:	69 00 00 03 	*inconnu*
    18e8:	71 00 00 02 	l.nios_rrr r8,r0,r0,0x2
    18ec:	b2 01 00 00 	l.muli r16,r1,0
    18f0:	06 6e 00 00 	l.jal f9b818f0 <_end+0xf9afcac4>
    18f4:	19 4e 00 07 	*inconnu*
    18f8:	00 00 05 79 	l.j 2edc <__clz_tab+0x1f4>
    18fc:	00 00 03 86 	l.j 2714 <__umoddi3+0x1b0>
    1900:	00 00 02 d2 	l.j 2448 <__udivdi3+0x4a0>
    1904:	01 00 00 05 	l.j 4001918 <_end+0x3f7caec>
    1908:	7e 00 00 19 	*inconnu*
    190c:	69 01 00 00 	*inconnu*
    1910:	05 8a 00 00 	l.jal 6281910 <_end+0x61fcae4>
    1914:	19 71 00 07 	*inconnu*
    1918:	00 00 05 f1 	l.j 30dc <__clz_tab+0x3f4>
    191c:	00 00 03 91 	l.j 2760 <__umoddi3+0x1fc>
    1920:	00 00 03 17 	l.j 257c <__umoddi3+0x18>
    1924:	01 00 00 05 	l.j 4001938 <_end+0x3f7cb0c>
    1928:	f6 00 00 19 	*inconnu*
    192c:	79 01 00 00 	*inconnu*
    1930:	06 02 00 00 	l.jal f8081930 <_end+0xf7ffcb04>
    1934:	19 90 05 00 	*inconnu*
    1938:	00 06 0e 05 	l.j 18514c <_end+0x100320>
    193c:	00 00 06 1a 	l.j 31a4 <__clz_tab+0x4bc>
    1940:	01 00 00 06 	l.j 4001958 <_end+0x3f7cb2c>
    1944:	26 00 00 19 	*inconnu*
    1948:	ab 01 00 00 	l.ori r24,r1,0x0
    194c:	06 32 00 00 	l.jal f8c8194c <_end+0xf8bfcb20>
    1950:	19 c1 01 00 	*inconnu*
    1954:	00 06 3e 00 	l.j 191154 <_end+0x10c328>
    1958:	00 19 d0 00 	l.j 675958 <_end+0x5f0b2c>
    195c:	07 00 00 05 	l.jal fc001970 <_end+0xfbf7cb44>
    1960:	97 00 00 03 	l.lhz r24,3(r0)
    1964:	a6 00 00 03 	l.andi r16,r0,0x3
    1968:	5c 01 00 00 	*inconnu*
    196c:	05 9c 00 00 	l.jal 670196c <_end+0x667cb40>
    1970:	19 e6 01 00 	*inconnu*
    1974:	00 05 a8 00 	l.j 16b974 <_end+0xe6b48>
    1978:	00 19 ee 05 	l.j 67d18c <_end+0x5f8360>
    197c:	00 00 05 b4 	l.j 304c <__clz_tab+0x364>
    1980:	05 00 00 05 	l.jal 4001994 <_end+0x3f7cb68>
    1984:	c0 01 00 00 	l.mtspr r1,r0,0x0
    1988:	05 cc 00 00 	l.jal 7301988 <_end+0x727cb5c>
    198c:	19 f6 01 00 	*inconnu*
    1990:	00 05 d8 00 	l.j 177990 <_end+0xf2b64>
    1994:	00 19 fe 01 	l.j 681198 <_end+0x5fc36c>
    1998:	00 00 05 e4 	l.j 3128 <__clz_tab+0x440>
    199c:	00 00 1a 0d 	l.j 81d0 <frameBuffer+0x33a8>
    19a0:	00 1d 00 00 	l.j 7419a0 <_end+0x6bcb74>
    19a4:	06 7b 00 00 	l.jal f9ec19a4 <_end+0xf9e3cb78>
    19a8:	03 c0 01 00 	l.j ff001da8 <_end+0xfef7cf7c>
    19ac:	00 06 7c 00 	l.j 1a09ac <_end+0x11bb80>
    19b0:	00 1a 1c 01 	l.j 6889b4 <_end+0x603b88>
    19b4:	00 00 06 87 	l.j 33d0 <__clz_tab+0x6e8>
    19b8:	00 00 1a 32 	l.j 8280 <frameBuffer+0x3458>
    19bc:	07 00 00 06 	l.jal fc0019d4 <_end+0xfbf7cba8>
    19c0:	92 00 00 03 	l.lbs r16,3(r0)
    19c4:	cb 00 00 03 	lf.div.s r24,r0,r0
    19c8:	c4 01 00 00 	*inconnu*
    19cc:	06 97 00 00 	l.jal fa5c19cc <_end+0xfa53cba0>
    19d0:	1a 48 01 00 	*inconnu*
    19d4:	00 06 a3 00 	l.j 1aa5d4 <_end+0x1257a8>
    19d8:	00 1a bf 01 	l.j 6b15dc <_end+0x62c7b0>
    19dc:	00 00 06 af 	l.j 3498 <__clz_tab+0x7b0>
    19e0:	00 00 1a f5 	l.j 85b4 <frameBuffer+0x378c>
    19e4:	01 00 00 06 	l.j 40019fc <_end+0x3f7cbd0>
    19e8:	bb 00 00 1b 	l.slli r24,r0,0x1b
    19ec:	19 01 00 00 	l.macrc r8
    19f0:	06 c7 00 00 	l.jal fb1c19f0 <_end+0xfb13cbc4>
    19f4:	1b 36 01 00 	*inconnu*
    19f8:	00 06 d3 00 	l.j 1b65f8 <_end+0x1317cc>
    19fc:	00 1b 5a 01 	l.j 6d8200 <_end+0x6533d4>
    1a00:	00 00 06 df 	l.j 357c <__clz_tab+0x894>
    1a04:	00 00 1b 8c 	l.j 8834 <frameBuffer+0x3a0c>
    1a08:	00 07 00 00 	l.j 1c1a08 <_end+0x13cbdc>
    1a0c:	06 ec 00 00 	l.jal fbb01a0c <_end+0xfba7cbe0>
    1a10:	03 ea 00 00 	l.j ffa81a10 <_end+0xff9fcbe4>
    1a14:	04 12 01 00 	l.jal 481e14 <_end+0x3fcfe8>
    1a18:	00 06 f1 00 	l.j 1bde18 <_end+0x138fec>
    1a1c:	00 1b b0 01 	l.j 6eda20 <_end+0x668bf4>
    1a20:	00 00 06 fd 	l.j 3614 <__clz_tab+0x92c>
    1a24:	00 00 1b b8 	l.j 8904 <frameBuffer+0x3adc>
    1a28:	01 00 00 07 	l.j 4001a44 <_end+0x3f7cc18>
    1a2c:	09 00 00 1b 	l.adrp r8,36000 <frameBuffer+0x311d8>
    1a30:	c0 01 00 00 	l.mtspr r1,r0,0x0
    1a34:	07 15 00 00 	l.jal fc541a34 <_end+0xfc4bcc08>
    1a38:	1b c8 05 00 	*inconnu*
    1a3c:	00 07 21 01 	l.j 1c9e40 <_end+0x145014>
    1a40:	00 00 07 2d 	l.j 36f4 <__clz_tab+0xa0c>
    1a44:	00 00 1b d0 	l.j 8984 <frameBuffer+0x3b5c>
    1a48:	05 00 00 07 	l.jal 4001a64 <_end+0x3f7cc38>
    1a4c:	39 01 00 00 	*inconnu*
    1a50:	07 45 00 00 	l.jal fd141a50 <_end+0xfd0bcc24>
    1a54:	1b eb 00 0e 	*inconnu*
    1a58:	00 00 07 64 	l.j 37e8 <__clz_tab+0xb00>
    1a5c:	00 00 2a 54 	l.j c3ac <frameBuffer+0x7584>
    1a60:	00 00 00 1c 	l.j 1ad0 <sprintf_+0x28>
    1a64:	00 00 04 2d 	l.j 2b18 <__umoddi3+0x5b4>
    1a68:	01 00 00 07 	l.j 4001a84 <_end+0x3f7cc58>
    1a6c:	65 00 00 1c 	*inconnu*
    1a70:	01 00 1e 00 	l.j 4009270 <_end+0x3f84444>
    1a74:	00 07 52 00 	l.j 1d6274 <_end+0x151448>
    1a78:	00 2a 90 00 	l.j aa5a78 <_end+0xa20c4c>
    1a7c:	00 00 18 01 	l.j 7a80 <frameBuffer+0x2c58>
    1a80:	00 00 07 57 	l.j 37dc <__clz_tab+0xaf4>
    1a84:	00 00 1c 09 	l.j 8aa8 <frameBuffer+0x3c80>
    1a88:	00 00 00 00 	l.j 1a88 <printf_+0x10>
    1a8c:	00 1f 00 00 	l.j 7c1a8c <_end+0x73cc60>
    1a90:	01 6b 01 03 	l.j 5ac1e9c <_end+0x5a3d070>
    1a94:	e3 01 00 00 	l.add r24,r1,r0
    1a98:	00 9d 03 00 	l.j 2742698 <_end+0x26bd86c>
    1a9c:	00 07 74 0b 	l.j 1deac8 <_end+0x159c9c>
    1aa0:	6e 00 17 00 	l.lwa r16,5888(r0)
    1aa4:	00 00 9d 0b 	l.j 28ed0 <frameBuffer+0x240a8>
    1aa8:	64 00 22 00 	*inconnu*
    1aac:	00 00 9d 0b 	l.j 28ed8 <frameBuffer+0x240b0>
    1ab0:	72 70 00 2e 	l.nios_rrr r19,r16,r0,0x2e
    1ab4:	00 00 07 74 	l.j 3884 <__clz_tab+0xb9c>
    1ab8:	03 6e 6e 00 	l.j fdb9d2b8 <_end+0xfdb1848c>
    1abc:	03 e5 11 00 	l.j ff945ebc <_end+0xff8c1090>
    1ac0:	00 01 1c 03 	l.j 48acc <frameBuffer+0x43ca4>
    1ac4:	64 64 00 03 	*inconnu*
    1ac8:	e6 11 00 00 	*inconnu*
    1acc:	01 1c 03 72 	l.j 4702894 <_end+0x467da68>
    1ad0:	72 00 03 e7 	l.nios_crc r16,r0,r0,0xe7
    1ad4:	0b 00 00 01 	l.adrp r24,2000 <__udivdi3+0x58>
    1ad8:	0f 03 64 30 	l.bnf fc0dab98 <_end+0xfc055d6c>
    1adc:	00 03 e8 0a 	l.j fbb04 <_end+0x76cd8>
    1ae0:	00 00 00 87 	l.j 1cfc <memcpy+0x170>
    1ae4:	03 64 31 00 	l.j fd90dee4 <_end+0xfd8890b8>
    1ae8:	03 e8 0e 00 	l.j ffa052e8 <_end+0xff9804bc>
    1aec:	00 00 87 03 	l.j 236f8 <frameBuffer+0x1e8d0>
    1af0:	6e 30 00 03 	l.lwa r17,3(r16)
    1af4:	e8 12 00 00 	*inconnu*
    1af8:	00 87 03 6e 	l.j 21c28b0 <_end+0x213da84>
    1afc:	31 00 03 e8 	*inconnu*
    1b00:	16 00 00 00 	*inconnu*
    1b04:	87 03 6e 32 	l.lwz r24,28210(r3)
    1b08:	00 03 e8 1a 	l.j fbb70 <_end+0x76d44>
    1b0c:	00 00 00 87 	l.j 1d28 <memcpy+0x19c>
    1b10:	03 71 30 00 	l.j fdc4db10 <_end+0xfdbc8ce4>
    1b14:	03 e9 0a 00 	l.j ffa44314 <_end+0xff9bf4e8>
    1b18:	00 00 87 03 	l.j 23724 <frameBuffer+0x1e8fc>
    1b1c:	71 31 00 03 	l.nios_rrr r9,r17,r0,0x3
    1b20:	e9 0e 00 00 	*inconnu*
    1b24:	00 87 03 62 	l.j 21c28ac <_end+0x213da80>
    1b28:	00 03 ea 0a 	l.j fc350 <_end+0x77524>
    1b2c:	00 00 00 87 	l.j 1d48 <memcpy+0x1bc>
    1b30:	03 62 6d 00 	l.j fd89cf30 <_end+0xfd818104>
    1b34:	03 ea 0d 00 	l.j ffa84f34 <_end+0xffa00108>
    1b38:	00 00 87 03 	l.j 23744 <frameBuffer+0x1e91c>
    1b3c:	77 77 00 04 	l.cas r27,r23,r0,0x4
    1b40:	b3 11 00 00 	l.muli r24,r17,0
    1b44:	01 1c 06 00 	l.j 4703344 <_end+0x467e518>
    1b48:	00 05 1f 02 	l.j 149750 <_end+0xc4924>
    1b4c:	00 00 01 66 	l.j 20e4 <__udivdi3+0x13c>
    1b50:	04 1a 04 00 	l.jal 682b50 <_end+0x5fdd24>
    1b54:	00 00 87 03 	l.j 23760 <frameBuffer+0x1e938>
    1b58:	5f 5f 61 00 	*inconnu*
    1b5c:	04 1a 04 00 	l.jal 682b5c <_end+0x5fdd30>
    1b60:	00 00 87 00 	l.j 23760 <frameBuffer+0x1e938>
    1b64:	06 00 00 05 	l.jal f8001b78 <_end+0xf7f7cd4c>
    1b68:	79 02 00 00 	*inconnu*
    1b6c:	00 25 04 26 	l.j 942c04 <_end+0x8bddd8>
    1b70:	04 00 00 00 	l.jal 1b70 <fctprintf+0x1c>
    1b74:	87 02 00 00 	l.lwz r24,0(r2)
    1b78:	00 20 04 26 	l.j 802c10 <_end+0x77dde4>
    1b7c:	04 00 00 00 	l.jal 1b7c <fctprintf+0x28>
    1b80:	87 02 00 00 	l.lwz r24,0(r2)
    1b84:	00 d0 04 26 	l.j 3402c1c <_end+0x337ddf0>
    1b88:	04 00 00 00 	l.jal 1b88 <fctprintf+0x34>
    1b8c:	87 02 00 00 	l.lwz r24,0(r2)
    1b90:	00 cb 04 26 	l.j 32c2c28 <_end+0x323ddfc>
    1b94:	04 00 00 00 	l.jal 1b94 <memcpy+0x8>
    1b98:	87 02 00 00 	l.lwz r24,0(r2)
    1b9c:	01 85 04 26 	l.j 6142c34 <_end+0x60bde08>
    1ba0:	04 00 00 00 	l.jal 1ba0 <memcpy+0x14>
    1ba4:	87 02 00 00 	l.lwz r24,0(r2)
    1ba8:	01 80 04 26 	l.j 6002c40 <_end+0x5f7de14>
    1bac:	04 00 00 00 	l.jal 1bac <memcpy+0x20>
    1bb0:	87 03 5f 5f 	l.lwz r24,24415(r3)
    1bb4:	6d 00 04 26 	l.lwa r8,1062(r0)
    1bb8:	04 00 00 00 	l.jal 1bb8 <memcpy+0x2c>
    1bbc:	87 00 06 00 	l.lwz r24,1536(r0)
    1bc0:	00 05 97 02 	l.j 1677c8 <_end+0xe299c>
    1bc4:	00 00 01 66 	l.j 215c <__udivdi3+0x1b4>
    1bc8:	04 32 04 00 	l.jal c82bc8 <_end+0xbfdd9c>
    1bcc:	00 00 87 03 	l.j 237d8 <frameBuffer+0x1e9b0>
    1bd0:	5f 5f 61 00 	*inconnu*
    1bd4:	04 32 04 00 	l.jal c82bd4 <_end+0xbfdda8>
    1bd8:	00 00 87 00 	l.j 237d8 <frameBuffer+0x1e9b0>
    1bdc:	06 00 00 05 	l.jal f8001bf0 <_end+0xf7f7cdc4>
    1be0:	f1 02 00 00 	*inconnu*
    1be4:	00 25 04 4b 	l.j 942d10 <_end+0x8bdee4>
    1be8:	08 00 00 00 	l.adrp r0,0 <_error>
    1bec:	87 02 00 00 	l.lwz r24,0(r2)
    1bf0:	00 20 04 4b 	l.j 802d1c <_end+0x77def0>
    1bf4:	08 00 00 00 	l.adrp r0,0 <_error>
    1bf8:	87 02 00 00 	l.lwz r24,0(r2)
    1bfc:	00 d0 04 4b 	l.j 3402d28 <_end+0x337defc>
    1c00:	08 00 00 00 	l.adrp r0,0 <_error>
    1c04:	87 02 00 00 	l.lwz r24,0(r2)
    1c08:	00 cb 04 4b 	l.j 32c2d34 <_end+0x323df08>
    1c0c:	08 00 00 00 	l.adrp r0,0 <_error>
    1c10:	87 02 00 00 	l.lwz r24,0(r2)
    1c14:	01 85 04 4b 	l.j 6142d40 <_end+0x60bdf14>
    1c18:	08 00 00 00 	l.adrp r0,0 <_error>
    1c1c:	87 02 00 00 	l.lwz r24,0(r2)
    1c20:	01 80 04 4b 	l.j 6002d4c <_end+0x5f7df20>
    1c24:	08 00 00 00 	l.adrp r0,0 <_error>
    1c28:	87 03 5f 5f 	l.lwz r24,24415(r3)
    1c2c:	6d 00 04 4b 	l.lwa r8,1099(r0)
    1c30:	08 00 00 00 	l.adrp r0,0 <_error>
    1c34:	87 00 06 00 	l.lwz r24,1536(r0)
    1c38:	00 06 4b 02 	l.j 194840 <_end+0x10fa14>
    1c3c:	00 00 00 25 	l.j 1cd0 <memcpy+0x144>
    1c40:	04 50 04 00 	l.jal 1402c40 <_end+0x137de14>
    1c44:	00 00 87 02 	l.j 2384c <frameBuffer+0x1ea24>
    1c48:	00 00 00 20 	l.j 1cc8 <memcpy+0x13c>
    1c4c:	04 50 04 00 	l.jal 1402c4c <_end+0x137de20>
    1c50:	00 00 87 02 	l.j 23858 <frameBuffer+0x1ea30>
    1c54:	00 00 00 d0 	l.j 1f94 <vga_puts+0x1c>
    1c58:	04 50 04 00 	l.jal 1402c58 <_end+0x137de2c>
    1c5c:	00 00 87 02 	l.j 23864 <frameBuffer+0x1ea3c>
    1c60:	00 00 00 cb 	l.j 1f8c <vga_puts+0x14>
    1c64:	04 50 04 00 	l.jal 1402c64 <_end+0x137de38>
    1c68:	00 00 87 02 	l.j 23870 <frameBuffer+0x1ea48>
    1c6c:	00 00 01 85 	l.j 2280 <__udivdi3+0x2d8>
    1c70:	04 50 04 00 	l.jal 1402c70 <_end+0x137de44>
    1c74:	00 00 87 02 	l.j 2387c <frameBuffer+0x1ea54>
    1c78:	00 00 01 80 	l.j 2278 <__udivdi3+0x2d0>
    1c7c:	04 50 04 00 	l.jal 1402c7c <_end+0x137de50>
    1c80:	00 00 87 03 	l.j 2388c <frameBuffer+0x1ea64>
    1c84:	5f 5f 6d 00 	*inconnu*
    1c88:	04 50 04 00 	l.jal 1402c88 <_end+0x137de5c>
    1c8c:	00 00 87 00 	l.j 2388c <frameBuffer+0x1ea64>
    1c90:	06 00 00 06 	l.jal f8001ca8 <_end+0xf7f7ce7c>
    1c94:	69 02 00 00 	*inconnu*
    1c98:	01 66 04 73 	l.j 5982e64 <_end+0x58fe038>
    1c9c:	04 00 00 00 	l.jal 1c9c <memcpy+0x110>
    1ca0:	87 03 5f 5f 	l.lwz r24,24415(r3)
    1ca4:	61 00 04 73 	*inconnu*
    1ca8:	04 00 00 00 	l.jal 1ca8 <memcpy+0x11c>
    1cac:	87 00 06 00 	l.lwz r24,1536(r0)
    1cb0:	00 06 7b 03 	l.j 1a08bc <_end+0x11ba90>
    1cb4:	5f 5f 78 00 	*inconnu*
    1cb8:	04 81 05 00 	l.jal 20430b8 <_end+0x1fbe28c>
    1cbc:	00 00 87 00 	l.j 238bc <frameBuffer+0x1ea94>
    1cc0:	0f 03 6d 31 	l.bnf fc0dd184 <_end+0xfc058358>
    1cc4:	00 04 91 0f 	l.j 126100 <_end+0xa12d4>
    1cc8:	00 00 00 87 	l.j 1ee4 <uart_puts+0x2c>
    1ccc:	03 6d 30 00 	l.j fdb4dccc <_end+0xfdac8ea0>
    1cd0:	04 91 13 00 	l.jal 24468d0 <_end+0x23c1aa4>
    1cd4:	00 00 87 06 	l.j 238ec <frameBuffer+0x1eac4>
    1cd8:	00 00 06 ec 	l.j 3888 <__clz_tab+0xba0>
    1cdc:	02 00 00 00 	l.j f8001cdc <_end+0xf7f7ceb0>
    1ce0:	25 04 9c 08 	*inconnu*
    1ce4:	00 00 00 87 	l.j 1f00 <uart_puts+0x48>
    1ce8:	02 00 00 00 	l.j f8001ce8 <_end+0xf7f7cebc>
    1cec:	20 04 9c 08 	*inconnu*
    1cf0:	00 00 00 87 	l.j 1f0c <uart_puts+0x54>
    1cf4:	02 00 00 00 	l.j f8001cf4 <_end+0xf7f7cec8>
    1cf8:	d0 04 9c 08 	*inconnu*
    1cfc:	00 00 00 87 	l.j 1f18 <uart_getc+0x4>
    1d00:	02 00 00 00 	l.j f8001d00 <_end+0xf7f7ced4>
    1d04:	cb 04 9c 08 	*inconnu*
    1d08:	00 00 00 87 	l.j 1f24 <uart_getc+0x10>
    1d0c:	02 00 00 01 	l.j f8001d10 <_end+0xf7f7cee4>
    1d10:	85 04 9c 08 	l.lwz r8,-25592(r4)
    1d14:	00 00 00 87 	l.j 1f30 <uart_getc+0x1c>
    1d18:	02 00 00 01 	l.j f8001d1c <_end+0xf7f7cef0>
    1d1c:	80 04 9c 08 	*inconnu*
    1d20:	00 00 00 87 	l.j 1f3c <uart_getc+0x28>
    1d24:	03 5f 5f 6d 	l.j fd7d9ad8 <_end+0xfd754cac>
    1d28:	00 04 9c 08 	l.j 128d48 <_end+0xa3f1c>
    1d2c:	00 00 00 87 	l.j 1f48 <vga_clear>
    1d30:	00 06 00 00 	l.j 181d30 <_end+0xfcf04>
    1d34:	07 52 02 00 	l.jal fd482534 <_end+0xfd3fd708>
    1d38:	00 00 8b 04 	l.j 24948 <frameBuffer+0x1fb20>
    1d3c:	9d 08 00 00 	l.addi r8,r8,0
    1d40:	00 87 02 00 	l.j 21c2540 <_end+0x213d714>
    1d44:	00 00 90 04 	l.j 25d54 <frameBuffer+0x20f2c>
    1d48:	9d 08 00 00 	l.addi r8,r8,0
    1d4c:	00 87 02 00 	l.j 21c254c <_end+0x213d720>
    1d50:	00 00 95 04 	l.j 27160 <frameBuffer+0x22338>
    1d54:	9d 08 00 00 	l.addi r8,r8,0
    1d58:	00 87 02 00 	l.j 21c2558 <_end+0x213d72c>
    1d5c:	00 00 9a 04 	l.j 2856c <frameBuffer+0x23744>
    1d60:	9d 08 00 00 	l.addi r8,r8,0
    1d64:	00 87 02 00 	l.j 21c2564 <_end+0x213d738>
    1d68:	00 01 8f 04 	l.j 65978 <frameBuffer+0x60b50>
    1d6c:	9d 08 00 00 	l.addi r8,r8,0
    1d70:	00 87 02 00 	l.j 21c2570 <_end+0x213d744>
    1d74:	00 00 2f 04 	l.j d984 <frameBuffer+0x8b5c>
    1d78:	9d 08 00 00 	l.addi r8,r8,0
    1d7c:	00 87 02 00 	l.j 21c257c <_end+0x213d750>
    1d80:	00 01 8a 04 	l.j 64590 <frameBuffer+0x5f768>
    1d84:	9d 08 00 00 	l.addi r8,r8,0
    1d88:	00 87 02 00 	l.j 21c2588 <_end+0x213d75c>
    1d8c:	00 00 2a 04 	l.j c59c <frameBuffer+0x7774>
    1d90:	9d 08 00 00 	l.addi r8,r8,0
    1d94:	00 87 00 06 	l.j 21c1dac <_end+0x213cf80>
    1d98:	00 00 07 64 	l.j 3b28 <__clz_tab+0xe40>
    1d9c:	03 5f 5f 78 	l.j fd7d9b7c <_end+0xfd754d50>
    1da0:	00 04 a2 05 	l.j 12a5b4 <_end+0xa5788>
    1da4:	00 00 00 87 	l.j 1fc0 <__udivdi3+0x18>
    1da8:	00 0f 03 5f 	l.j 3c2b24 <_end+0x33dcf8>
    1dac:	5f 78 00 04 	*inconnu*
    1db0:	aa 05 00 00 	l.ori r16,r5,0x0
    1db4:	00 87 00 00 	l.j 21c1db4 <_end+0x213cf88>
    1db8:	00 20 04 00 	l.j 802db8 <_end+0x77df8c>
    1dbc:	00 00 9d 00 	l.j 291bc <frameBuffer+0x24394>
    1dc0:	00 00 00 bf 	l.j 20bc <__udivdi3+0x114>
    1dc4:	00 05 01 04 	l.j 1421d4 <_end+0xbd3a8>
    1dc8:	00 00 06 c6 	l.j 38e0 <__clz_tab+0xbf8>
    1dcc:	03 00 00 01 	l.j fc001dd0 <_end+0xfbf7cfa4>
    1dd0:	b1 1d 00 00 	l.muli r8,r29,0
    1dd4:	00 00 00 00 	l.j 1dd4 <memset+0x8>
    1dd8:	00 2f 00 00 	l.j bc1dd8 <_end+0xb3cfac>
    1ddc:	3a 26 04 04 	*inconnu*
    1de0:	05 69 6e 74 	l.jal 5a5d7b0 <_end+0x59d8984>
    1de4:	00 01 04 07 	l.j 42e00 <frameBuffer+0x3dfd8>
    1de8:	00 00 00 55 	l.j 1f3c <uart_getc+0x28>
    1dec:	01 08 05 00 	l.j 42031ec <_end+0x417e3c0>
    1df0:	00 00 3d 01 	l.j 111f4 <frameBuffer+0xc3cc>
    1df4:	08 04 00 00 	l.adrp r0,80000000 <_end+0x7ff7b1d4>
    1df8:	00 71 01 01 	l.j 1c421fc <_end+0x1bbd3d0>
    1dfc:	08 00 00 00 	l.adrp r0,0 <_error>
    1e00:	7d 01 01 06 	*inconnu*
    1e04:	00 00 00 86 	l.j 201c <__udivdi3+0x74>
    1e08:	01 01 06 00 	l.j 4043608 <_end+0x3fbe7dc>
    1e0c:	00 00 7f 05 	l.j 21a20 <frameBuffer+0x1cbf8>
    1e10:	00 00 00 9f 	l.j 208c <__udivdi3+0xe4>
    1e14:	02 7b 16 00 	l.j f9ec7614 <_end+0xf9e427e8>
    1e18:	00 00 3a 02 	l.j 10620 <frameBuffer+0xb7f8>
    1e1c:	00 00 00 4f 	l.j 1f58 <vga_textcorr>
    1e20:	01 02 05 00 	l.j 4083220 <_end+0x3ffe3f4>
    1e24:	00 00 16 01 	l.j 7628 <frameBuffer+0x2800>
    1e28:	02 07 00 00 	l.j f81c1e28 <_end+0xf813cffc>
    1e2c:	00 b0 01 08 	l.j 2c0224c <_end+0x2b7d420>
    1e30:	07 00 00 00 	l.jal fc001e30 <_end+0xfbf7d004>
    1e34:	4b 01 04 04 	*inconnu*
    1e38:	00 00 00 10 	l.j 1e78 <uart_putc>
    1e3c:	01 08 03 00 	l.j 4202a3c <_end+0x417dc10>
    1e40:	00 00 08 01 	l.j 3e44 <__clz_tab+0x115c>
    1e44:	08 04 00 00 	l.adrp r0,80000000 <_end+0x7ff7b1d4>
    1e48:	00 76 01 10 	l.j 1d82288 <_end+0x1cfd45c>
    1e4c:	03 00 00 01 	l.j fc001e50 <_end+0xfbf7d024>
    1e50:	57 06 00 00 	*inconnu*
    1e54:	00 5b 00 00 	l.j 16c1e54 <_end+0x163d028>
    1e58:	00 a1 07 00 	l.j 2843a58 <_end+0x27bec2c>
    1e5c:	00 00 25 ff 	l.j b658 <frameBuffer+0x6830>
    1e60:	00 02 00 00 	l.j 81e60 <frameBuffer+0x7d038>
    1e64:	00 91 08 00 	l.j 2443e64 <_end+0x23bf038>
    1e68:	00 00 67 02 	l.j 1ba70 <frameBuffer+0x16c48>
    1e6c:	02 06 16 00 	l.j f818766c <_end+0xf8102840>
    1e70:	00 00 a1 09 	l.j 2a294 <frameBuffer+0x2546c>
    1e74:	00 00 00 a6 	l.j 210c <__udivdi3+0x164>
    1e78:	01 02 9e 0f 	l.j 40a96b4 <_end+0x4024888>
    1e7c:	05 03 00 00 	l.jal 40c1e7c <_end+0x403d050>
    1e80:	Address 0x1e80 is out of bounds.


Déassemblage de la section .debug_abbrev :

00000000 <.debug_abbrev>:
   0:	01 34 00 31 	l.j 4d000c4 <_end+0x4c7b298>
   4:	13 02 17 00 	l.bf fc085c04 <_end+0xfc000dd8>
   8:	00 02 34 00 	l.j 8d008 <_end+0x81dc>
   c:	03 0e 3a 21 	l.j fc38e890 <_end+0xfc309a64>
  10:	01 3b 05 39 	l.j 4ec14f4 <_end+0x4e3c6c8>
  14:	0b 49 13 00 	l.adrp r26,22600000 <_end+0x2257b1d4>
  18:	00 03 34 00 	l.j cd018 <_end+0x481ec>
  1c:	03 08 3a 21 	l.j fc20e8a0 <_end+0xfc189a74>
  20:	01 3b 05 39 	l.j 4ec1504 <_end+0x4e3c6d8>
  24:	0b 49 13 00 	l.adrp r26,22600000 <_end+0x2257b1d4>
  28:	00 04 24 00 	l.j 109028 <_end+0x841fc>
  2c:	0b 0b 3e 0b 	l.adrp r24,67c16000 <_end+0x67b911d4>
  30:	03 0e 00 00 	l.j fc380030 <_end+0xfc2fb204>
  34:	05 0b 01 01 	l.jal 42c0438 <_end+0x423b60c>
  38:	13 00 00 06 	l.bf fc000050 <_end+0xfbf7b224>
  3c:	0b 01 31 13 	l.adrp r24,26226000 <_end+0x261a11d4>
  40:	55 17 01 13 	*inconnu*
  44:	00 00 07 34 	l.j 1d14 <memcpy+0x188>
  48:	00 31 13 00 	l.j c44c48 <_end+0xbbfe1c>
  4c:	00 08 16 00 	l.j 20584c <_end+0x180a20>
  50:	03 0e 3a 21 	l.j fc38e8d4 <_end+0xfc309aa8>
  54:	02 3b 0b 39 	l.j f8ec2d38 <_end+0xf8e3df0c>
  58:	0b 49 13 00 	l.adrp r26,22600000 <_end+0x2257b1d4>
  5c:	00 09 34 00 	l.j 24d05c <_end+0x1c8230>
  60:	03 08 3a 21 	l.j fc20e8e4 <_end+0xfc189ab8>
  64:	01 3b 05 39 	l.j 4ec1548 <_end+0x4e3c71c>
  68:	0b 49 13 02 	l.adrp r26,22604000 <_end+0x2257f1d4>
  6c:	17 00 00 0a 	*inconnu*
  70:	26 00 49 13 	*inconnu*
  74:	00 00 0b 05 	l.j 2c88 <__umoddi3+0x724>
  78:	00 03 08 3a 	l.j c2160 <_end+0x3d334>
  7c:	21 01 3b 21 	*inconnu*
  80:	e3 07 39 0b 	*inconnu*
  84:	49 13 00 00 	*inconnu*
  88:	0c 0d 00 03 	l.bnf 340094 <_end+0x2bb268>
  8c:	08 3a 21 02 	l.adrp r1,44204000 <_end+0x4417f1d4>
  90:	3b 05 39 0b 	*inconnu*
  94:	49 13 00 00 	*inconnu*
  98:	0d 05 00 03 	l.bnf 41400a4 <_end+0x40bb278>
  9c:	08 3a 21 01 	l.adrp r1,44202000 <_end+0x4417d1d4>
  a0:	3b 21 bb 09 	*inconnu*
  a4:	39 0b 49 13 	*inconnu*
  a8:	02 17 00 00 	l.j f85c00a8 <_end+0xf853b27c>
  ac:	0e 05 00 31 	l.bnf f8140170 <_end+0xf80bb344>
  b0:	13 00 00 0f 	l.bf fc0000ec <_end+0xfbf7b2c0>
  b4:	0b 01 31 13 	l.adrp r24,26226000 <_end+0x261a11d4>
  b8:	55 17 00 00 	*inconnu*
  bc:	10 0b 01 00 	l.bf 2c04bc <_end+0x23b690>
  c0:	00 11 11 01 	l.j 4444c4 <_end+0x3bf698>
  c4:	25 0e 13 0b 	*inconnu*
  c8:	03 1f 1b 1f 	l.j fc7c6d44 <_end+0xfc741f18>
  cc:	11 01 12 06 	l.bf 40448e4 <_end+0x3fbfab8>
  d0:	10 17 00 00 	l.bf 5c00d0 <_end+0x53b2a4>
  d4:	12 24 00 0b 	l.bf f8900100 <_end+0xf887b2d4>
  d8:	0b 3e 0b 03 	l.adrp r25,c1606000 <_end+0xc15811d4>
  dc:	08 00 00 13 	l.adrp r0,26000 <frameBuffer+0x211d8>
  e0:	13 01 03 0e 	l.bf fc040d18 <_end+0xfbfbbeec>
  e4:	0b 0b 3a 0b 	l.adrp r24,67416000 <_end+0x673911d4>
  e8:	3b 05 39 0b 	*inconnu*
  ec:	01 13 00 00 	l.j 44c00ec <_end+0x443b2c0>
  f0:	14 0d 00 03 	*inconnu*
  f4:	0e 3a 0b 3b 	l.bnf f8e82de0 <_end+0xf8dfdfb4>
  f8:	05 39 0b 49 	l.jal 4e42e1c <_end+0x4dbdff0>
  fc:	13 38 0b 00 	l.bf fce02cfc <_end+0xfcd7ded0>
 100:	00 15 0d 00 	l.j 543500 <_end+0x4be6d4>
 104:	03 08 3a 0b 	l.j fc20e930 <_end+0xfc189b04>
 108:	3b 05 39 0b 	*inconnu*
 10c:	49 13 38 0b 	*inconnu*
 110:	00 00 16 17 	l.j 596c <frameBuffer+0xb44>
 114:	01 0b 0b 3a 	l.j 42c2dfc <_end+0x423dfd0>
 118:	0b 3b 05 39 	l.adrp r25,60a72000 <_end+0x609ed1d4>
 11c:	0b 01 13 00 	l.adrp r24,22600000 <_end+0x2257b1d4>
 120:	00 17 16 00 	l.j 5c5920 <_end+0x540af4>
 124:	03 0e 3a 0b 	l.j fc38e950 <_end+0xfc309b24>
 128:	3b 05 39 0b 	*inconnu*
 12c:	49 13 00 00 	*inconnu*
 130:	18 01 01 49 	*inconnu*
 134:	13 01 13 00 	l.bf fc044d34 <_end+0xfbfbff08>
 138:	00 19 21 00 	l.j 648538 <_end+0x5c370c>
 13c:	49 13 2f 0b 	*inconnu*
 140:	00 00 1a 34 	l.j 6a10 <frameBuffer+0x1be8>
 144:	00 03 0e 3a 	l.j c3a2c <_end+0x3ec00>
 148:	0b 3b 05 39 	l.adrp r25,60a72000 <_end+0x609ed1d4>
 14c:	0b 49 13 3f 	l.adrp r26,2267e000 <_end+0x225f91d4>
 150:	19 3c 19 00 	*inconnu*
 154:	00 1b 2e 01 	l.j 6cb958 <_end+0x646b2c>
 158:	3f 19 03 0e 	*inconnu*
 15c:	3a 0b 3b 05 	*inconnu*
 160:	39 0b 27 19 	*inconnu*
 164:	49 13 11 01 	*inconnu*
 168:	12 06 40 18 	l.bf f81901c8 <_end+0xf810b39c>
 16c:	7a 19 01 13 	*inconnu*
 170:	00 00 1c 1d 	l.j 71e4 <frameBuffer+0x23bc>
 174:	01 31 13 52 	l.j 4c44ebc <_end+0x4bc0090>
 178:	01 55 17 58 	l.j 5545ed8 <_end+0x54c10ac>
 17c:	0b 59 05 57 	l.adrp r26,20aae000 <_end+0x20a291d4>
 180:	0b 00 00 1d 	l.adrp r24,3a000 <frameBuffer+0x351d8>
 184:	05 00 31 13 	l.jal 400c5d0 <_end+0x3f877a4>
 188:	02 17 00 00 	l.j f85c0188 <_end+0xf853b35c>
 18c:	1e 0b 01 55 	*inconnu*
 190:	17 00 00 1f 	*inconnu*
 194:	2e 01 03 0e 	*inconnu*
 198:	3a 0b 3b 05 	*inconnu*
 19c:	39 0b 27 19 	*inconnu*
 1a0:	49 13 20 0b 	*inconnu*
 1a4:	01 13 00 00 	l.j 44c01a4 <_end+0x443b378>
 1a8:	20 0f 00 0b 	*inconnu*
 1ac:	0b 49 13 00 	l.adrp r26,22600000 <_end+0x2257b1d4>
 1b0:	00 00 01 34 	l.j 680 <perf_cpu_freq+0x3c>
 1b4:	00 31 13 02 	l.j c44dbc <_end+0xbbff90>
 1b8:	17 00 00 02 	*inconnu*
 1bc:	34 00 03 0e 	*inconnu*
 1c0:	3a 21 01 3b 	*inconnu*
 1c4:	05 39 0b 49 	l.jal 4e42ee8 <_end+0x4dbe0bc>
 1c8:	13 00 00 03 	l.bf fc0001d4 <_end+0xfbf7b3a8>
 1cc:	34 00 03 08 	*inconnu*
 1d0:	3a 21 01 3b 	*inconnu*
 1d4:	05 39 0b 49 	l.jal 4e42ef8 <_end+0x4dbe0cc>
 1d8:	13 00 00 04 	l.bf fc0001e8 <_end+0xfbf7b3bc>
 1dc:	24 00 0b 0b 	*inconnu*
 1e0:	3e 0b 03 0e 	*inconnu*
 1e4:	00 00 05 34 	l.j 16b4 <_vsnprintf+0x570>
 1e8:	00 31 13 00 	l.j c44de8 <_end+0xbbffbc>
 1ec:	00 06 0b 01 	l.j 182df0 <_end+0xfdfc4>
 1f0:	01 13 00 00 	l.j 44c01f0 <_end+0x443b3c4>
 1f4:	07 0b 01 31 	l.jal fc2c06b8 <_end+0xfc23b88c>
 1f8:	13 55 17 01 	l.bf fd545dfc <_end+0xfd4c0fd0>
 1fc:	13 00 00 08 	l.bf fc00021c <_end+0xfbf7b3f0>
 200:	16 00 03 0e 	*inconnu*
 204:	3a 21 02 3b 	*inconnu*
 208:	0b 39 0b 49 	l.adrp r25,21692000 <_end+0x2160d1d4>
 20c:	13 00 00 09 	l.bf fc000230 <_end+0xfbf7b404>
 210:	34 00 03 08 	*inconnu*
 214:	3a 21 01 3b 	*inconnu*
 218:	05 39 0b 49 	l.jal 4e42f3c <_end+0x4dbe110>
 21c:	13 02 17 00 	l.bf fc085e1c <_end+0xfc000ff0>
 220:	00 0a 26 00 	l.j 289a20 <_end+0x204bf4>
 224:	49 13 00 00 	*inconnu*
 228:	0b 05 00 03 	l.adrp r24,a0006000 <_end+0x9ff811d4>
 22c:	08 3a 21 01 	l.adrp r1,44202000 <_end+0x4417d1d4>
 230:	3b 21 e3 07 	*inconnu*
 234:	39 0b 49 13 	*inconnu*
 238:	00 00 0c 0d 	l.j 326c <__clz_tab+0x584>
 23c:	00 03 08 3a 	l.j c2324 <_end+0x3d4f8>
 240:	21 02 3b 05 	*inconnu*
 244:	39 0b 49 13 	*inconnu*
 248:	00 00 0d 05 	l.j 365c <__clz_tab+0x974>
 24c:	00 03 08 3a 	l.j c2334 <_end+0x3d508>
 250:	21 01 3b 21 	*inconnu*
 254:	d3 09 39 0b 	*inconnu*
 258:	49 13 02 17 	*inconnu*
 25c:	00 00 0e 05 	l.j 3a70 <__clz_tab+0xd88>
 260:	00 31 13 00 	l.j c44e60 <_end+0xbc0034>
 264:	00 0f 0b 01 	l.j 3c2e68 <_end+0x33e03c>
 268:	31 13 11 01 	*inconnu*
 26c:	12 06 01 13 	l.bf f81806b8 <_end+0xf80fb88c>
 270:	00 00 10 0b 	l.j 429c <__clz_tab+0x15b4>
 274:	01 00 00 11 	l.j 40002b8 <_end+0x3f7b48c>
 278:	11 01 25 0e 	l.bf 40496b0 <_end+0x3fc4884>
 27c:	13 0b 03 1f 	l.bf fc2c0ef8 <_end+0xfc23c0cc>
 280:	1b 1f 11 01 	*inconnu*
 284:	12 06 10 17 	l.bf f81842e0 <_end+0xf80ff4b4>
 288:	00 00 12 24 	l.j 4b18 <__clz_tab+0x1e30>
 28c:	00 0b 0b 3e 	l.j 2c2f84 <_end+0x23e158>
 290:	0b 03 08 00 	l.adrp r24,61000000 <_end+0x60f7b1d4>
 294:	00 13 13 01 	l.j 4c4e98 <_end+0x44006c>
 298:	03 0e 0b 0b 	l.j fc382ec4 <_end+0xfc2fe098>
 29c:	3a 0b 3b 05 	*inconnu*
 2a0:	39 0b 01 13 	*inconnu*
 2a4:	00 00 14 0d 	l.j 52d8 <frameBuffer+0x4b0>
 2a8:	00 03 0e 3a 	l.j c3b90 <_end+0x3ed64>
 2ac:	0b 3b 05 39 	l.adrp r25,60a72000 <_end+0x609ed1d4>
 2b0:	0b 49 13 38 	l.adrp r26,22670000 <_end+0x225eb1d4>
 2b4:	0b 00 00 15 	l.adrp r24,2a000 <frameBuffer+0x251d8>
 2b8:	0d 00 03 08 	l.bnf 4000ed8 <_end+0x3f7c0ac>
 2bc:	3a 0b 3b 05 	*inconnu*
 2c0:	39 0b 49 13 	*inconnu*
 2c4:	38 0b 00 00 	*inconnu*
 2c8:	16 17 01 0b 	*inconnu*
 2cc:	0b 3a 0b 3b 	l.adrp r25,41676000 <_end+0x415f11d4>
 2d0:	05 39 0b 01 	l.jal 4e42ed4 <_end+0x4dbe0a8>
 2d4:	13 00 00 17 	l.bf fc000330 <_end+0xfbf7b504>
 2d8:	16 00 03 0e 	*inconnu*
 2dc:	3a 0b 3b 05 	*inconnu*
 2e0:	39 0b 49 13 	*inconnu*
 2e4:	00 00 18 01 	l.j 62e8 <frameBuffer+0x14c0>
 2e8:	01 49 13 01 	l.j 5244eec <_end+0x51c00c0>
 2ec:	13 00 00 19 	l.bf fc000350 <_end+0xfbf7b524>
 2f0:	21 00 49 13 	l.trap 0x4913
 2f4:	2f 0b 00 00 	*inconnu*
 2f8:	1a 34 00 03 	*inconnu*
 2fc:	0e 3a 0b 3b 	l.bnf f8e82fe8 <_end+0xf8dfe1bc>
 300:	05 39 0b 49 	l.jal 4e43024 <_end+0x4dbe1f8>
 304:	13 3f 19 3c 	l.bf fcfc67f4 <_end+0xfcf419c8>
 308:	19 00 00 1b 	l.movhi r8,0x1b
 30c:	2e 01 3f 19 	*inconnu*
 310:	03 0e 3a 0b 	l.j fc38eb3c <_end+0xfc309d10>
 314:	3b 05 39 0b 	*inconnu*
 318:	27 19 49 13 	*inconnu*
 31c:	11 01 12 06 	l.bf 4044b34 <_end+0x3fbfd08>
 320:	40 18 7a 19 	*inconnu*
 324:	01 13 00 00 	l.j 44c0324 <_end+0x443b4f8>
 328:	1c 1d 01 31 	*inconnu*
 32c:	13 52 01 55 	l.bf fd480880 <_end+0xfd3fba54>
 330:	17 58 0b 59 	*inconnu*
 334:	05 57 0b 00 	l.jal 55c2f34 <_end+0x553e108>
 338:	00 1d 05 00 	l.j 741738 <_end+0x6bc90c>
 33c:	31 13 02 17 	*inconnu*
 340:	00 00 1e 0b 	l.j 7b6c <frameBuffer+0x2d44>
 344:	01 55 17 00 	l.j 5545f44 <_end+0x54c1118>
 348:	00 1f 0b 01 	l.j 7c2f4c <_end+0x73e120>
 34c:	31 13 55 17 	*inconnu*
 350:	00 00 20 0b 	l.j 837c <frameBuffer+0x3554>
 354:	01 31 13 11 	l.j 4c44f98 <_end+0x4bc016c>
 358:	01 12 06 00 	l.j 4481b58 <_end+0x43fcd2c>
 35c:	00 21 2e 01 	l.j 84bb60 <_end+0x7c6d34>
 360:	03 0e 3a 0b 	l.j fc38eb8c <_end+0xfc309d60>
 364:	3b 05 39 0b 	*inconnu*
 368:	27 19 49 13 	*inconnu*
 36c:	20 0b 01 13 	*inconnu*
 370:	00 00 22 0f 	l.j 8bac <frameBuffer+0x3d84>
 374:	00 0b 0b 49 	l.j 2c3098 <_end+0x23e26c>
 378:	13 00 00 00 	l.bf fc000378 <_end+0xfbf7b54c>
 37c:	01 34 00 31 	l.j 4d00440 <_end+0x4c7b614>
 380:	13 02 17 00 	l.bf fc085f80 <_end+0xfc001154>
 384:	00 02 34 00 	l.j 8d384 <_end+0x8558>
 388:	03 0e 3a 21 	l.j fc38ec0c <_end+0xfc309de0>
 38c:	01 3b 05 39 	l.j 4ec1870 <_end+0x4e3ca44>
 390:	0b 49 13 00 	l.adrp r26,22600000 <_end+0x2257b1d4>
 394:	00 03 34 00 	l.j cd394 <_end+0x48568>
 398:	03 08 3a 21 	l.j fc20ec1c <_end+0xfc189df0>
 39c:	01 3b 05 39 	l.j 4ec1880 <_end+0x4e3ca54>
 3a0:	0b 49 13 00 	l.adrp r26,22600000 <_end+0x2257b1d4>
 3a4:	00 04 24 00 	l.j 1093a4 <_end+0x84578>
 3a8:	0b 0b 3e 0b 	l.adrp r24,67c16000 <_end+0x67b911d4>
 3ac:	03 0e 00 00 	l.j fc3803ac <_end+0xfc2fb580>
 3b0:	05 0b 01 01 	l.jal 42c07b4 <_end+0x423b988>
 3b4:	13 00 00 06 	l.bf fc0003cc <_end+0xfbf7b5a0>
 3b8:	34 00 31 13 	*inconnu*
 3bc:	00 00 07 0b 	l.j 1fe8 <__udivdi3+0x40>
 3c0:	01 31 13 55 	l.j 4c45114 <_end+0x4bc02e8>
 3c4:	17 01 13 00 	*inconnu*
 3c8:	00 08 16 00 	l.j 205bc8 <_end+0x180d9c>
 3cc:	03 0e 3a 21 	l.j fc38ec50 <_end+0xfc309e24>
 3d0:	02 3b 0b 39 	l.j f8ec30b4 <_end+0xf8e3e288>
 3d4:	0b 49 13 00 	l.adrp r26,22600000 <_end+0x2257b1d4>
 3d8:	00 09 26 00 	l.j 249bd8 <_end+0x1c4dac>
 3dc:	49 13 00 00 	*inconnu*
 3e0:	0a 05 00 31 	l.adrp r16,a0062000 <_end+0x9ffdd1d4>
 3e4:	13 02 17 00 	l.bf fc085fe4 <_end+0xfc0011b8>
 3e8:	00 0b 05 00 	l.j 2c17e8 <_end+0x23c9bc>
 3ec:	03 08 3a 21 	l.j fc20ec70 <_end+0xfc189e44>
 3f0:	01 3b 21 e3 	l.j 4ec8b7c <_end+0x4e43d50>
 3f4:	07 39 0b 49 	l.jal fce43118 <_end+0xfcdbe2ec>
 3f8:	13 00 00 0c 	l.bf fc000428 <_end+0xfbf7b5fc>
 3fc:	0d 00 03 08 	l.bnf 400101c <_end+0x3f7c1f0>
 400:	3a 21 02 3b 	*inconnu*
 404:	05 39 0b 49 	l.jal 4e43128 <_end+0x4dbe2fc>
 408:	13 00 00 0d 	l.bf fc00043c <_end+0xfbf7b610>
 40c:	05 00 03 08 	l.jal 400102c <_end+0x3f7c200>
 410:	3a 21 01 3b 	*inconnu*
 414:	21 92 0a 39 	*inconnu*
 418:	0b 49 13 02 	l.adrp r26,22604000 <_end+0x2257f1d4>
 41c:	17 00 00 0e 	*inconnu*
 420:	0b 01 31 13 	l.adrp r24,26226000 <_end+0x261a11d4>
 424:	55 17 00 00 	*inconnu*
 428:	0f 0b 01 00 	l.bnf fc2c0828 <_end+0xfc23b9fc>
 42c:	00 10 11 01 	l.j 404830 <_end+0x37fa04>
 430:	25 0e 13 0b 	*inconnu*
 434:	03 1f 1b 1f 	l.j fc7c70b0 <_end+0xfc742284>
 438:	11 01 12 06 	l.bf 4044c50 <_end+0x3fbfe24>
 43c:	10 17 00 00 	l.bf 5c043c <_end+0x53b610>
 440:	11 24 00 0b 	l.bf 490046c <_end+0x487b640>
 444:	0b 3e 0b 03 	l.adrp r25,c1606000 <_end+0xc15811d4>
 448:	08 00 00 12 	l.adrp r0,24000 <frameBuffer+0x1f1d8>
 44c:	13 01 03 0e 	l.bf fc041084 <_end+0xfbfbc258>
 450:	0b 0b 3a 0b 	l.adrp r24,67416000 <_end+0x673911d4>
 454:	3b 05 39 0b 	*inconnu*
 458:	01 13 00 00 	l.j 44c0458 <_end+0x443b62c>
 45c:	13 0d 00 03 	l.bf fc340468 <_end+0xfc2bb63c>
 460:	0e 3a 0b 3b 	l.bnf f8e8314c <_end+0xf8dfe320>
 464:	05 39 0b 49 	l.jal 4e43188 <_end+0x4dbe35c>
 468:	13 38 0b 00 	l.bf fce03068 <_end+0xfcd7e23c>
 46c:	00 14 0d 00 	l.j 50386c <_end+0x47ea40>
 470:	03 08 3a 0b 	l.j fc20ec9c <_end+0xfc189e70>
 474:	3b 05 39 0b 	*inconnu*
 478:	49 13 38 0b 	*inconnu*
 47c:	00 00 15 17 	l.j 58d8 <frameBuffer+0xab0>
 480:	01 0b 0b 3a 	l.j 42c3168 <_end+0x423e33c>
 484:	0b 3b 05 39 	l.adrp r25,60a72000 <_end+0x609ed1d4>
 488:	0b 01 13 00 	l.adrp r24,22600000 <_end+0x2257b1d4>
 48c:	00 16 16 00 	l.j 585c8c <_end+0x500e60>
 490:	03 0e 3a 0b 	l.j fc38ecbc <_end+0xfc309e90>
 494:	3b 05 39 0b 	*inconnu*
 498:	49 13 00 00 	*inconnu*
 49c:	17 01 01 49 	*inconnu*
 4a0:	13 01 13 00 	l.bf fc0450a0 <_end+0xfbfc0274>
 4a4:	00 18 21 00 	l.j 6088a4 <_end+0x583a78>
 4a8:	49 13 2f 0b 	*inconnu*
 4ac:	00 00 19 34 	l.j 697c <frameBuffer+0x1b54>
 4b0:	00 03 0e 3a 	l.j c3d98 <_end+0x3ef6c>
 4b4:	0b 3b 05 39 	l.adrp r25,60a72000 <_end+0x609ed1d4>
 4b8:	0b 49 13 3f 	l.adrp r26,2267e000 <_end+0x225f91d4>
 4bc:	19 3c 19 00 	*inconnu*
 4c0:	00 1a 2e 01 	l.j 68bcc4 <_end+0x606e98>
 4c4:	3f 19 03 0e 	*inconnu*
 4c8:	3a 0b 3b 05 	*inconnu*
 4cc:	39 0b 27 19 	*inconnu*
 4d0:	49 13 11 01 	*inconnu*
 4d4:	12 06 40 18 	l.bf f8190534 <_end+0xf810b708>
 4d8:	7a 19 01 13 	*inconnu*
 4dc:	00 00 1b 1d 	l.j 7150 <frameBuffer+0x2328>
 4e0:	01 31 13 52 	l.j 4c45228 <_end+0x4bc03fc>
 4e4:	01 55 17 58 	l.j 5546244 <_end+0x54c1418>
 4e8:	0b 59 05 57 	l.adrp r26,20aae000 <_end+0x20a291d4>
 4ec:	0b 00 00 1c 	l.adrp r24,38000 <frameBuffer+0x331d8>
 4f0:	0b 01 55 17 	l.adrp r24,2aa2e000 <_end+0x2a9a91d4>
 4f4:	00 00 1d 2e 	l.j 79ac <frameBuffer+0x2b84>
 4f8:	01 03 0e 3a 	l.j 40c3de0 <_end+0x403efb4>
 4fc:	0b 3b 05 39 	l.adrp r25,60a72000 <_end+0x609ed1d4>
 500:	0b 27 19 49 	l.adrp r25,e3292000 <_end+0xe320d1d4>
 504:	13 20 0b 01 	l.bf fc803108 <_end+0xfc77e2dc>
 508:	13 00 00 1e 	l.bf fc000580 <_end+0xfbf7b754>
 50c:	0f 00 0b 0b 	l.bnf fc003138 <_end+0xfbf7e30c>
 510:	49 13 00 00 	*inconnu*
 514:	00 01 34 00 	l.j 4d514 <frameBuffer+0x486ec>
 518:	31 13 02 17 	*inconnu*
 51c:	00 00 02 34 	l.j dec <_ntoa_format+0x334>
 520:	00 03 0e 3a 	l.j c3e08 <_end+0x3efdc>
 524:	21 01 3b 05 	*inconnu*
 528:	39 0b 49 13 	*inconnu*
 52c:	00 00 03 34 	l.j 11fc <_vsnprintf+0xb8>
 530:	00 03 08 3a 	l.j c2618 <_end+0x3d7ec>
 534:	21 01 3b 05 	*inconnu*
 538:	39 0b 49 13 	*inconnu*
 53c:	00 00 04 24 	l.j 15cc <_vsnprintf+0x488>
 540:	00 0b 0b 3e 	l.j 2c3238 <_end+0x23e40c>
 544:	0b 03 0e 00 	l.adrp r24,61c00000 <_end+0x61b7b1d4>
 548:	00 05 34 00 	l.j 14d548 <_end+0xc871c>
 54c:	31 13 00 00 	*inconnu*
 550:	06 0b 01 01 	l.jal f82c0954 <_end+0xf823bb28>
 554:	13 00 00 07 	l.bf fc000570 <_end+0xfbf7b744>
 558:	0b 01 31 13 	l.adrp r24,26226000 <_end+0x261a11d4>
 55c:	55 17 01 13 	*inconnu*
 560:	00 00 08 16 	l.j 25b8 <__umoddi3+0x54>
 564:	00 03 0e 3a 	l.j c3e4c <_end+0x3f020>
 568:	21 02 3b 0b 	*inconnu*
 56c:	39 0b 49 13 	*inconnu*
 570:	00 00 09 26 	l.j 2a08 <__umoddi3+0x4a4>
 574:	00 49 13 00 	l.j 1245174 <_end+0x11c0348>
 578:	00 0a 05 00 	l.j 281978 <_end+0x1fcb4c>
 57c:	31 13 02 17 	*inconnu*
 580:	00 00 0b 05 	l.j 3194 <__clz_tab+0x4ac>
 584:	00 03 08 3a 	l.j c266c <_end+0x3d840>
 588:	21 01 3b 21 	*inconnu*
 58c:	e3 07 39 0b 	*inconnu*
 590:	49 13 00 00 	*inconnu*
 594:	0c 0d 00 03 	l.bnf 3405a0 <_end+0x2bb774>
 598:	08 3a 21 02 	l.adrp r1,44204000 <_end+0x4417f1d4>
 59c:	3b 05 39 0b 	*inconnu*
 5a0:	49 13 00 00 	*inconnu*
 5a4:	0d 05 00 03 	l.bnf 41405b0 <_end+0x40bb784>
 5a8:	08 3a 21 01 	l.adrp r1,44202000 <_end+0x4417d1d4>
 5ac:	3b 21 86 0a 	*inconnu*
 5b0:	39 0b 49 13 	*inconnu*
 5b4:	02 17 00 00 	l.j f85c05b4 <_end+0xf853b788>
 5b8:	0e 0b 01 31 	l.bnf f82c0a7c <_end+0xf823bc50>
 5bc:	13 11 01 12 	l.bf fc440a04 <_end+0xfc3bbbd8>
 5c0:	06 01 13 00 	l.jal f80451c0 <_end+0xf7fc0394>
 5c4:	00 0f 0b 01 	l.j 3c31c8 <_end+0x33e39c>
 5c8:	00 00 10 11 	l.j 460c <__clz_tab+0x1924>
 5cc:	01 25 0e 13 	l.j 4943e18 <_end+0x48befec>
 5d0:	0b 03 1f 1b 	l.adrp r24,63e36000 <_end+0x63db11d4>
 5d4:	1f 11 01 12 	*inconnu*
 5d8:	06 10 17 00 	l.jal f84061d8 <_end+0xf83813ac>
 5dc:	00 11 24 00 	l.j 4495dc <_end+0x3c47b0>
 5e0:	0b 0b 3e 0b 	l.adrp r24,67c16000 <_end+0x67b911d4>
 5e4:	03 08 00 00 	l.j fc2005e4 <_end+0xfc17b7b8>
 5e8:	12 13 01 03 	l.bf f84c09f4 <_end+0xf843bbc8>
 5ec:	0e 0b 0b 3a 	l.bnf f82c32d4 <_end+0xf823e4a8>
 5f0:	0b 3b 05 39 	l.adrp r25,60a72000 <_end+0x609ed1d4>
 5f4:	0b 01 13 00 	l.adrp r24,22600000 <_end+0x2257b1d4>
 5f8:	00 13 0d 00 	l.j 4c39f8 <_end+0x43ebcc>
 5fc:	03 0e 3a 0b 	l.j fc38ee28 <_end+0xfc309ffc>
 600:	3b 05 39 0b 	*inconnu*
 604:	49 13 38 0b 	*inconnu*
 608:	00 00 14 0d 	l.j 563c <frameBuffer+0x814>
 60c:	00 03 08 3a 	l.j c26f4 <_end+0x3d8c8>
 610:	0b 3b 05 39 	l.adrp r25,60a72000 <_end+0x609ed1d4>
 614:	0b 49 13 38 	l.adrp r26,22670000 <_end+0x225eb1d4>
 618:	0b 00 00 15 	l.adrp r24,2a000 <frameBuffer+0x251d8>
 61c:	17 01 0b 0b 	*inconnu*
 620:	3a 0b 3b 05 	*inconnu*
 624:	39 0b 01 13 	*inconnu*
 628:	00 00 16 16 	l.j 5e80 <frameBuffer+0x1058>
 62c:	00 03 0e 3a 	l.j c3f14 <_end+0x3f0e8>
 630:	0b 3b 05 39 	l.adrp r25,60a72000 <_end+0x609ed1d4>
 634:	0b 49 13 00 	l.adrp r26,22600000 <_end+0x2257b1d4>
 638:	00 17 01 01 	l.j 5c0a3c <_end+0x53bc10>
 63c:	49 13 01 13 	*inconnu*
 640:	00 00 18 21 	l.j 66c4 <frameBuffer+0x189c>
 644:	00 49 13 2f 	l.j 1245300 <_end+0x11c04d4>
 648:	0b 00 00 19 	l.adrp r24,32000 <frameBuffer+0x2d1d8>
 64c:	34 00 03 0e 	*inconnu*
 650:	3a 0b 3b 05 	*inconnu*
 654:	39 0b 49 13 	*inconnu*
 658:	3f 19 3c 19 	*inconnu*
 65c:	00 00 1a 2e 	l.j 6f14 <frameBuffer+0x20ec>
 660:	01 3f 19 03 	l.j 4fc6a6c <_end+0x4f41c40>
 664:	0e 3a 0b 3b 	l.bnf f8e83350 <_end+0xf8dfe524>
 668:	05 39 0b 27 	l.jal 4e43304 <_end+0x4dbe4d8>
 66c:	19 49 13 11 	*inconnu*
 670:	01 12 06 40 	l.j 4481f70 <_end+0x43fd144>
 674:	18 7a 19 01 	*inconnu*
 678:	13 00 00 1b 	l.bf fc0006e4 <_end+0xfbf7b8b8>
 67c:	1d 01 31 13 	*inconnu*
 680:	52 01 55 17 	*inconnu*
 684:	58 0b 59 05 	*inconnu*
 688:	57 0b 00 00 	*inconnu*
 68c:	1c 0b 01 55 	*inconnu*
 690:	17 00 00 1d 	*inconnu*
 694:	0b 01 31 13 	l.adrp r24,26226000 <_end+0x261a11d4>
 698:	55 17 00 00 	*inconnu*
 69c:	1e 0b 01 31 	*inconnu*
 6a0:	13 11 01 12 	l.bf fc440ae8 <_end+0xfc3bbcbc>
 6a4:	06 00 00 1f 	l.jal f8000720 <_end+0xf7f7b8f4>
 6a8:	2e 01 03 0e 	*inconnu*
 6ac:	3a 0b 3b 05 	*inconnu*
 6b0:	39 0b 27 19 	*inconnu*
 6b4:	49 13 20 0b 	*inconnu*
 6b8:	01 13 00 00 	l.j 44c06b8 <_end+0x443b88c>
 6bc:	20 0f 00 0b 	*inconnu*
 6c0:	0b 49 13 00 	l.adrp r26,22600000 <_end+0x2257b1d4>
 6c4:	00 00 01 24 	l.j b54 <_ntoa_format+0x9c>
 6c8:	00 0b 0b 3e 	l.j 2c33c0 <_end+0x23e594>
 6cc:	0b 03 0e 00 	l.adrp r24,61c00000 <_end+0x61b7b1d4>
 6d0:	00 02 26 00 	l.j 89ed0 <_end+0x50a4>
 6d4:	49 13 00 00 	*inconnu*
 6d8:	03 11 01 25 	l.j fc440b6c <_end+0xfc3bbd40>
 6dc:	0e 13 0b 03 	l.bnf f84c32e8 <_end+0xf843e4bc>
 6e0:	1f 1b 1f 10 	*inconnu*
 6e4:	17 00 00 04 	*inconnu*
 6e8:	24 00 0b 0b 	*inconnu*
 6ec:	3e 0b 03 08 	*inconnu*
 6f0:	00 00 05 16 	l.j 1b48 <vsnprintf_+0x10>
 6f4:	00 03 0e 3a 	l.j c3fdc <_end+0x3f1b0>
 6f8:	0b 3b 0b 39 	l.adrp r25,61672000 <_end+0x615ed1d4>
 6fc:	0b 49 13 00 	l.adrp r26,22600000 <_end+0x2257b1d4>
 700:	00 06 01 01 	l.j 180b04 <_end+0xfbcd8>
 704:	49 13 01 13 	*inconnu*
 708:	00 00 07 21 	l.j 238c <__udivdi3+0x3e4>
 70c:	00 49 13 2f 	l.j 12453c8 <_end+0x11c059c>
 710:	0b 00 00 08 	l.adrp r24,10000 <frameBuffer+0xb1d8>
 714:	34 00 03 0e 	*inconnu*
 718:	3a 0b 3b 05 	*inconnu*
 71c:	39 0b 49 13 	*inconnu*
 720:	3f 19 3c 19 	*inconnu*
 724:	00 00 09 34 	l.j 2bf4 <__umoddi3+0x690>
 728:	00 47 13 3a 	l.j 11c5410 <_end+0x11405e4>
 72c:	0b 3b 05 39 	l.adrp r25,60a72000 <_end+0x609ed1d4>
 730:	0b 02 18 00 	l.adrp r24,43000000 <_end+0x42f7b1d4>
	...

Déassemblage de la section .debug_line :

00000000 <.debug_line>:
       0:	00 00 0e 91 	l.j 3a44 <__clz_tab+0xd5c>
       4:	00 05 04 00 	l.j 141004 <_end+0xbc1d8>
       8:	00 00 00 33 	l.j d4 <_exception_handler+0x44>
       c:	01 01 01 f6 	l.j 40407e4 <_end+0x3fbb9b8>
      10:	f2 0d 00 01 	*inconnu*
      14:	01 01 01 00 	l.j 4040414 <_end+0x3fbb5e8>
      18:	00 00 01 00 	l.j 418 <main+0x224>
      1c:	00 01 01 01 	l.j 40420 <frameBuffer+0x3b5f8>
      20:	1f 02 00 00 	*inconnu*
      24:	00 2f 00 00 	l.j bc0024 <_end+0xb3b1f8>
      28:	00 7d 02 01 	l.j 1f4082c <_end+0x1ebba00>
      2c:	1f 02 0b 03 	*inconnu*
	...
      38:	1b 01 00 00 	l.macrc r24
      3c:	00 25 01 00 	l.j 94043c <_end+0x8bb610>
      40:	05 02 00 00 	l.jal 4080040 <_end+0x3ffb214>
      44:	00 00 03 bb 	l.j f30 <_ntoa_long_long+0x8>
      48:	09 01 05 01 	l.adrp r8,20a02000 <_end+0x2097d1d4>
      4c:	00 05 02 00 	l.j 14084c <_end+0xbba20>
      50:	00 00 00 18 	l.j b0 <_exception_handler+0x20>
      54:	05 03 00 05 	l.jal 40c0068 <_end+0x403b23c>
      58:	02 00 00 00 	l.j f8000058 <_end+0xf7f7b22c>
      5c:	00 18 05 03 	l.j 601468 <_end+0x57c63c>
      60:	00 05 02 00 	l.j 140860 <_end+0xbba34>
      64:	00 00 00 18 	l.j c4 <_exception_handler+0x34>
      68:	05 03 00 05 	l.jal 40c007c <_end+0x403b250>
      6c:	02 00 00 00 	l.j f800006c <_end+0xf7f7b240>
      70:	00 18 05 03 	l.j 60147c <_end+0x57c650>
      74:	00 05 02 00 	l.j 140874 <_end+0xbba48>
      78:	00 00 00 19 	l.j dc <_exception_handler+0x4c>
      7c:	05 03 00 05 	l.jal 40c0090 <_end+0x403b264>
      80:	02 00 00 00 	l.j f8000080 <_end+0xf7f7b254>
      84:	00 06 01 05 	l.j 180498 <_end+0xfb66c>
      88:	06 00 05 02 	l.jal f8001490 <_end+0xf7f7c664>
      8c:	00 00 00 00 	l.j 8c <_loop_end+0x4>
      90:	06 1a 05 03 	l.jal f868149c <_end+0xf85fc670>
      94:	00 05 02 00 	l.j 140894 <_end+0xbba68>
      98:	00 00 00 06 	l.j b0 <_exception_handler+0x20>
      9c:	01 05 06 00 	l.j 414189c <_end+0x40bca70>
      a0:	05 02 00 00 	l.jal 40800a0 <_end+0x3ffb274>
      a4:	00 00 06 1b 	l.j 1910 <_vsnprintf+0x7cc>
      a8:	05 03 00 05 	l.jal 40c00bc <_end+0x403b290>
      ac:	02 00 00 00 	l.j f80000ac <_end+0xf7f7b280>
      b0:	00 03 9c 7e 	l.j e72a8 <_end+0x6247c>
      b4:	01 05 03 00 	l.j 4140cb4 <_end+0x40bbe88>
      b8:	05 02 00 00 	l.jal 40800b8 <_end+0x3ffb28c>
      bc:	00 00 18 05 	l.j 60d0 <frameBuffer+0x12a8>
      c0:	03 00 05 02 	l.j fc0014c8 <_end+0xfbf7c69c>
      c4:	00 00 00 00 	l.j c4 <_exception_handler+0x34>
      c8:	18 05 03 00 	*inconnu*
      cc:	05 02 00 00 	l.jal 40800cc <_end+0x3ffb2a0>
      d0:	00 00 18 05 	l.j 60e4 <frameBuffer+0x12bc>
      d4:	03 00 05 02 	l.j fc0014dc <_end+0xfbf7c6b0>
      d8:	00 00 00 00 	l.j d8 <_exception_handler+0x48>
      dc:	18 05 03 00 	*inconnu*
      e0:	05 02 00 00 	l.jal 40800e0 <_end+0x3ffb2b4>
      e4:	00 00 18 05 	l.j 60f8 <frameBuffer+0x12d0>
      e8:	03 00 05 02 	l.j fc0014f0 <_end+0xfbf7c6c4>
      ec:	00 00 00 00 	l.j ec <_exception_handler+0x5c>
      f0:	19 05 03 00 	*inconnu*
      f4:	05 02 00 00 	l.jal 40800f4 <_end+0x3ffb2c8>
      f8:	00 00 06 3f 	l.j 19f4 <_vsnprintf+0x8b0>
      fc:	05 06 00 05 	l.jal 4180110 <_end+0x40fb2e4>
     100:	02 00 00 00 	l.j f8000100 <_end+0xf7f7b2d4>
     104:	00 03 58 01 	l.j d6108 <_end+0x512dc>
     108:	05 06 00 05 	l.jal 418011c <_end+0x40fb2f0>
     10c:	02 00 00 00 	l.j f800010c <_end+0xf7f7b2e0>
     110:	00 06 18 05 	l.j 186124 <_end+0x1012f8>
     114:	03 00 05 02 	l.j fc00151c <_end+0xfbf7c6f0>
     118:	00 00 00 00 	l.j 118 <_exception_handler+0x88>
     11c:	18 05 03 00 	*inconnu*
     120:	05 02 00 00 	l.jal 4080120 <_end+0x3ffb2f4>
     124:	00 00 06 01 	l.j 1928 <_vsnprintf+0x7e4>
     128:	05 06 00 05 	l.jal 418013c <_end+0x40fb310>
     12c:	02 00 00 00 	l.j f800012c <_end+0xf7f7b300>
     130:	00 06 18 05 	l.j 186144 <_end+0x101318>
     134:	03 00 05 02 	l.j fc00153c <_end+0xfbf7c710>
     138:	00 00 00 00 	l.j 138 <_exception_handler+0xa8>
     13c:	3c 05 03 00 	*inconnu*
     140:	05 02 00 00 	l.jal 4080140 <_end+0x3ffb314>
     144:	00 00 06 01 	l.j 1948 <_vsnprintf+0x804>
     148:	05 06 00 05 	l.jal 418015c <_end+0x40fb330>
     14c:	02 00 00 00 	l.j f800014c <_end+0xf7f7b320>
     150:	00 06 19 05 	l.j 186564 <_end+0x101738>
     154:	07 00 05 02 	l.jal fc00155c <_end+0xfbf7c730>
     158:	00 00 00 00 	l.j 158 <_exception_handler+0xc8>
     15c:	06 01 05 0a 	l.jal f8041584 <_end+0xf7fbc758>
     160:	00 05 02 00 	l.j 140960 <_end+0xbbb34>
     164:	00 00 00 06 	l.j 17c <_exception_handler+0xec>
     168:	1b 05 04 00 	*inconnu*
     16c:	05 02 00 00 	l.jal 408016c <_end+0x3ffb340>
     170:	00 00 01 05 	l.j 584 <system_call_handler>
     174:	04 00 05 02 	l.jal 157c <_vsnprintf+0x438>
     178:	00 00 00 00 	l.j 178 <_exception_handler+0xe8>
     17c:	01 05 04 00 	l.j 414117c <_end+0x40bc350>
     180:	05 02 00 00 	l.jal 4080180 <_end+0x3ffb354>
     184:	00 00 01 05 	l.j 598 <trap_handler+0x8>
     188:	04 00 05 02 	l.jal 1590 <_vsnprintf+0x44c>
     18c:	00 00 00 00 	l.j 18c <_exception_handler+0xfc>
     190:	00 02 04 01 	l.j 81194 <frameBuffer+0x7c36c>
     194:	01 05 04 00 	l.j 4141194 <_end+0x40bc368>
     198:	05 02 00 00 	l.jal 4080198 <_end+0x3ffb36c>
     19c:	00 00 00 02 	l.j 1a4 <_exception_handler+0x114>
     1a0:	04 04 06 01 	l.jal 1019a4 <_end+0x7cb78>
     1a4:	05 04 00 05 	l.jal 41001b8 <_end+0x407b38c>
     1a8:	02 00 00 00 	l.j f80001a8 <_end+0xf7f7b37c>
     1ac:	00 00 02 04 	l.j 9bc <perf_print_time+0x78>
     1b0:	0a 01 05 04 	l.adrp r16,20a08000 <_end+0x209831d4>
     1b4:	00 05 02 00 	l.j 1409b4 <_end+0xbbb88>
     1b8:	00 00 00 00 	l.j 1b8 <_exception_handler+0x128>
     1bc:	02 04 15 06 	l.j f81055d4 <_end+0xf80807a8>
     1c0:	01 05 04 00 	l.j 41411c0 <_end+0x40bc394>
     1c4:	05 02 00 00 	l.jal 40801c4 <_end+0x3ffb398>
     1c8:	00 00 00 02 	l.j 1d0 <_vectors+0x14>
     1cc:	04 16 06 01 	l.jal 5819d0 <_end+0x4fcba4>
     1d0:	05 04 00 05 	l.jal 41001e4 <_end+0x407b3b8>
     1d4:	02 00 00 00 	l.j f80001d4 <_end+0xf7f7b3a8>
     1d8:	00 00 02 04 	l.j 9e8 <_putchar+0x8>
     1dc:	00 19 05 07 	l.j 6415f8 <_end+0x5bc7cc>
     1e0:	00 05 02 00 	l.j 1409e0 <_end+0xbbbb4>
     1e4:	00 00 00 00 	l.j 1e4 <_vectors+0x28>
     1e8:	02 04 16 06 	l.j f8105a00 <_end+0xf8080bd4>
     1ec:	15 05 04 00 	*inconnu*
     1f0:	05 02 00 00 	l.jal 40801f0 <_end+0x3ffb3c4>
     1f4:	00 00 00 02 	l.j 1fc <main+0x8>
     1f8:	04 00 19 05 	l.jal 660c <frameBuffer+0x17e4>
     1fc:	04 00 05 02 	l.jal 1604 <_vsnprintf+0x4c0>
     200:	00 00 00 00 	l.j 200 <main+0xc>
     204:	06 01 05 07 	l.jal f8041620 <_end+0xf7fbc7f4>
     208:	00 05 02 00 	l.j 140a08 <_end+0xbbbdc>
     20c:	00 00 00 06 	l.j 224 <main+0x30>
     210:	1c 05 08 00 	*inconnu*
     214:	05 02 00 00 	l.jal 4080214 <_end+0x3ffb3e8>
     218:	00 00 06 18 	l.j 1a78 <printf_>
     21c:	05 11 00 05 	l.jal 4440230 <_end+0x43bb404>
     220:	02 00 00 00 	l.j f8000220 <_end+0xf7f7b3f4>
     224:	00 01 05 1e 	l.j 4169c <frameBuffer+0x3c874>
     228:	00 05 02 00 	l.j 140a28 <_end+0xbbbfc>
     22c:	00 00 00 16 	l.j 284 <main+0x90>
     230:	05 0b 00 05 	l.jal 42c0244 <_end+0x423b418>
     234:	02 00 00 00 	l.j f8000234 <_end+0xf7f7b408>
     238:	00 06 18 05 	l.j 18624c <_end+0x101420>
     23c:	08 00 05 02 	l.adrp r0,a04000 <_end+0x97f1d4>
     240:	00 00 00 00 	l.j 240 <main+0x4c>
     244:	06 01 05 0b 	l.jal f8041670 <_end+0xf7fbc844>
     248:	00 05 02 00 	l.j 140a48 <_end+0xbbc1c>
     24c:	00 00 00 06 	l.j 264 <main+0x70>
     250:	18 05 08 00 	*inconnu*
     254:	05 02 00 00 	l.jal 4080254 <_end+0x3ffb428>
     258:	00 00 06 01 	l.j 1a5c <_vsnprintf+0x918>
     25c:	05 0b 00 05 	l.jal 42c0270 <_end+0x423b444>
     260:	02 00 00 00 	l.j f8000260 <_end+0xf7f7b434>
     264:	00 06 1a 05 	l.j 186a78 <_end+0x101c4c>
     268:	04 00 05 02 	l.jal 1670 <_vsnprintf+0x52c>
     26c:	00 00 00 00 	l.j 26c <main+0x78>
     270:	01 05 04 00 	l.j 4141270 <_end+0x40bc444>
     274:	05 02 00 00 	l.jal 4080274 <_end+0x3ffb448>
     278:	00 00 01 05 	l.j 68c <perf_cpu_freq+0x48>
     27c:	04 00 05 02 	l.jal 1684 <_vsnprintf+0x540>
     280:	00 00 00 00 	l.j 280 <main+0x8c>
     284:	01 05 04 00 	l.j 4141284 <_end+0x40bc458>
     288:	05 02 00 00 	l.jal 4080288 <_end+0x3ffb45c>
     28c:	00 00 01 05 	l.j 6a0 <perf_cpu_freq+0x5c>
     290:	04 00 05 02 	l.jal 1698 <_vsnprintf+0x554>
     294:	00 00 00 00 	l.j 294 <main+0xa0>
     298:	00 02 04 02 	l.j 812a0 <frameBuffer+0x7c478>
     29c:	06 01 05 04 	l.jal f80416ac <_end+0xf7fbc880>
     2a0:	00 05 02 00 	l.j 140aa0 <_end+0xbbc74>
     2a4:	00 00 00 00 	l.j 2a4 <main+0xb0>
     2a8:	02 04 00 01 	l.j f81002ac <_end+0xf807b480>
     2ac:	05 04 00 05 	l.jal 41002c0 <_end+0x407b494>
     2b0:	02 00 00 00 	l.j f80002b0 <_end+0xf7f7b484>
     2b4:	00 06 01 05 	l.j 1806c8 <_end+0xfb89c>
     2b8:	04 00 05 02 	l.jal 16c0 <_vsnprintf+0x57c>
     2bc:	00 00 00 00 	l.j 2bc <main+0xc8>
     2c0:	00 02 04 01 	l.j 812c4 <frameBuffer+0x7c49c>
     2c4:	01 05 04 00 	l.j 41412c4 <_end+0x40bc498>
     2c8:	05 02 00 00 	l.jal 40802c8 <_end+0x3ffb49c>
     2cc:	00 00 00 02 	l.j 2d4 <main+0xe0>
     2d0:	04 02 01 05 	l.jal 806e4 <frameBuffer+0x7b8bc>
     2d4:	04 00 05 02 	l.jal 16dc <_vsnprintf+0x598>
     2d8:	00 00 00 00 	l.j 2d8 <main+0xe4>
     2dc:	01 05 04 00 	l.j 41412dc <_end+0x40bc4b0>
     2e0:	05 02 00 00 	l.jal 40802e0 <_end+0x3ffb4b4>
     2e4:	00 00 01 05 	l.j 6f8 <perf_cpu_freq+0xb4>
     2e8:	04 00 05 02 	l.jal 16f0 <_vsnprintf+0x5ac>
     2ec:	00 00 00 00 	l.j 2ec <main+0xf8>
     2f0:	00 02 04 03 	l.j 812fc <frameBuffer+0x7c4d4>
     2f4:	01 05 04 00 	l.j 41412f4 <_end+0x40bc4c8>
     2f8:	05 02 00 00 	l.jal 40802f8 <_end+0x3ffb4cc>
     2fc:	00 00 01 05 	l.j 710 <perf_init+0x14>
     300:	04 00 05 02 	l.jal 1708 <_vsnprintf+0x5c4>
     304:	00 00 00 00 	l.j 304 <main+0x110>
     308:	00 02 04 05 	l.j 8131c <frameBuffer+0x7c4f4>
     30c:	01 05 04 00 	l.j 414130c <_end+0x40bc4e0>
     310:	05 02 00 00 	l.jal 4080310 <_end+0x3ffb4e4>
     314:	00 00 00 02 	l.j 31c <main+0x128>
     318:	04 03 06 01 	l.jal c1b1c <_end+0x3ccf0>
     31c:	05 04 00 05 	l.jal 4100330 <_end+0x407b504>
     320:	02 00 00 00 	l.j f8000320 <_end+0xf7f7b4f4>
     324:	00 00 02 04 	l.j b34 <_ntoa_format+0x7c>
     328:	09 06 01 05 	l.adrp r8,c020a000 <_end+0xc01851d4>
     32c:	04 00 05 02 	l.jal 1734 <_vsnprintf+0x5f0>
     330:	00 00 00 00 	l.j 330 <main+0x13c>
     334:	01 05 04 00 	l.j 4141334 <_end+0x40bc508>
     338:	05 02 00 00 	l.jal 4080338 <_end+0x3ffb50c>
     33c:	00 00 00 02 	l.j 344 <main+0x150>
     340:	04 0a 01 05 	l.jal 280754 <_end+0x1fb928>
     344:	04 00 05 02 	l.jal 174c <_vsnprintf+0x608>
     348:	00 00 00 00 	l.j 348 <main+0x154>
     34c:	00 02 04 0b 	l.j 81378 <frameBuffer+0x7c550>
     350:	01 05 04 00 	l.j 4141350 <_end+0x40bc524>
     354:	05 02 00 00 	l.jal 4080354 <_end+0x3ffb528>
